Archive member included to satisfy reference by file (symbol)

contiki-srf06-cc26xx.a(contiki-main.o)
                              obj_srf06-cc26xx/startup_gcc.o (main)
contiki-srf06-cc26xx.a(sensors.o)
                              cc26xx-data-collection.co (sensors_event)
contiki-srf06-cc26xx.a(leds.o)
                              contiki-srf06-cc26xx.a(contiki-main.o) (leds_init)
contiki-srf06-cc26xx.a(leds-arch.o)
                              contiki-srf06-cc26xx.a(leds.o) (leds_arch_init)
contiki-srf06-cc26xx.a(sensortag-senso)
                              contiki-srf06-cc26xx.a(sensors.o) (sensors_flags)
contiki-srf06-cc26xx.a(bmp-280-sensor.)
                              cc26xx-data-collection.co (bmp_280_sensor)
contiki-srf06-cc26xx.a(tmp-007-sensor.)
                              cc26xx-data-collection.co (tmp_007_sensor)
contiki-srf06-cc26xx.a(opt-3001-sensor)
                              cc26xx-data-collection.co (opt_3001_sensor)
contiki-srf06-cc26xx.a(hdc-1000-sensor)
                              cc26xx-data-collection.co (hdc_1000_sensor)
contiki-srf06-cc26xx.a(mpu-9250-sensor)
                              cc26xx-data-collection.co (mpu_9250_sensor)
contiki-srf06-cc26xx.a(button-sensor.o)
                              cc26xx-data-collection.co (button_right_sensor)
contiki-srf06-cc26xx.a(reed-relay.o)
                              cc26xx-data-collection.co (reed_relay_sensor)
contiki-srf06-cc26xx.a(buzzer.o)
                              cc26xx-data-collection.co (buzzer_state)
contiki-srf06-cc26xx.a(board.o)
                              contiki-srf06-cc26xx.a(contiki-main.o) (board_init)
contiki-srf06-cc26xx.a(board-i2c.o)
                              contiki-srf06-cc26xx.a(board.o) (board_i2c_wakeup)
contiki-srf06-cc26xx.a(cfs-coffee.o)
                              cc26xx-data-collection.co (cfs_open)
contiki-srf06-cc26xx.a(xmem.o)
                              contiki-srf06-cc26xx.a(cfs-coffee.o) (xmem_pread)
contiki-srf06-cc26xx.a(clock.o)
                              contiki-srf06-cc26xx.a(contiki-main.o) (clock_init)
contiki-srf06-cc26xx.a(rtimer-arch.o)
                              contiki-srf06-cc26xx.a(mpu-9250-sensor) (rtimer_arch_now)
contiki-srf06-cc26xx.a(soc-rtc.o)
                              contiki-srf06-cc26xx.a(contiki-main.o) (soc_rtc_init)
contiki-srf06-cc26xx.a(contiki-watchdo)
                              contiki-srf06-cc26xx.a(contiki-main.o) (watchdog_init)
contiki-srf06-cc26xx.a(putchar.o)
                              contiki-srf06-cc26xx.a(contiki-main.o) (putchar)
contiki-srf06-cc26xx.a(ieee-addr.o)
                              contiki-srf06-cc26xx.a(contiki-main.o) (ieee_addr_cpy_to)
contiki-srf06-cc26xx.a(batmon-sensor.o)
                              cc26xx-data-collection.co (batmon_sensor)
contiki-srf06-cc26xx.a(cc26xx-uart.o)
                              contiki-srf06-cc26xx.a(contiki-main.o) (cc26xx_uart_init)
contiki-srf06-cc26xx.a(lpm.o)
                              contiki-srf06-cc26xx.a(contiki-main.o) (lpm_drop)
contiki-srf06-cc26xx.a(gpio-interrupt.)
                              contiki-srf06-cc26xx.a(button-sensor.o) (gpio_interrupt_register_handler)
contiki-srf06-cc26xx.a(oscillators.o)
                              contiki-srf06-cc26xx.a(contiki-main.o) (oscillators_select_lf_xosc)
contiki-srf06-cc26xx.a(ieee-mode.o)
                              cc26xx-data-collection.co (ieee_mode_driver)
contiki-srf06-cc26xx.a(random.o)
                              contiki-srf06-cc26xx.a(contiki-main.o) (random_init)
contiki-srf06-cc26xx.a(soc-trng.o)
                              contiki-srf06-cc26xx.a(random.o) (soc_trng_rand_synchronous)
contiki-srf06-cc26xx.a(dbg-printf.o)
                              cc26xx-data-collection.co (printf)
contiki-srf06-cc26xx.a(strformat.o)
                              contiki-srf06-cc26xx.a(dbg-printf.o) (format_str_v)
contiki-srf06-cc26xx.a(autostart.o)
                              contiki-srf06-cc26xx.a(contiki-main.o) (autostart_start)
contiki-srf06-cc26xx.a(energest.o)
                              contiki-srf06-cc26xx.a(contiki-main.o) (energest_init)
contiki-srf06-cc26xx.a(ctimer.o)
                              contiki-srf06-cc26xx.a(contiki-main.o) (ctimer_init)
contiki-srf06-cc26xx.a(etimer.o)
                              contiki-srf06-cc26xx.a(clock.o) (etimer_request_poll)
contiki-srf06-cc26xx.a(process.o)
                              contiki-srf06-cc26xx.a(sensors.o) (process_alloc_event)
contiki-srf06-cc26xx.a(rtimer.o)
                              contiki-srf06-cc26xx.a(contiki-main.o) (rtimer_init)
contiki-srf06-cc26xx.a(timer.o)
                              contiki-srf06-cc26xx.a(button-sensor.o) (timer_set)
contiki-srf06-cc26xx.a(serial-line.o)
                              cc26xx-data-collection.co (serial_line_event_message)
contiki-srf06-cc26xx.a(list.o)
                              contiki-srf06-cc26xx.a(lpm.o) (list_init)
contiki-srf06-cc26xx.a(ringbuf.o)
                              contiki-srf06-cc26xx.a(serial-line.o) (ringbuf_init)
contiki-srf06-cc26xx.a(broadcast.o)
                              cc26xx-data-collection.co (broadcast_open)
contiki-srf06-cc26xx.a(channel.o)
                              contiki-srf06-cc26xx.a(broadcast.o) (channel_set_attributes)
contiki-srf06-cc26xx.a(rime.o)
                              contiki-srf06-cc26xx.a(contiki-main.o) (rime_driver)
contiki-srf06-cc26xx.a(pwr_ctrl.o)
                              contiki-srf06-cc26xx.a(lpm.o) (NOROM_PowerCtrlSourceSet)
contiki-srf06-cc26xx.a(setup.o)
                              obj_srf06-cc26xx/startup_gcc.o (NOROM_SetupTrimDevice)
contiki-srf06-cc26xx.a(aon_rtc.o)
                              contiki-srf06-cc26xx.a(rtimer-arch.o) (NOROM_AONRTCCurrentCompareValueGet)
contiki-srf06-cc26xx.a(osc.o)
                              contiki-srf06-cc26xx.a(oscillators.o) (NOROM_OSCClockSourceSet)
contiki-srf06-cc26xx.a(aon_batmon.o)
                              contiki-srf06-cc26xx.a(batmon-sensor.o) (NOROM_AONBatMonTemperatureGetDegC)
contiki-srf06-cc26xx.a(sys_ctrl.o)
                              contiki-srf06-cc26xx.a(lpm.o) (NOROM_SysCtrlSetRechargeBeforePowerDown)
contiki-srf06-cc26xx.a(adi.o)
                              contiki-srf06-cc26xx.a(oscillators.o) (SafeHapiVoid)
contiki-srf06-cc26xx.a(cpu.o)
                              contiki-srf06-cc26xx.a(contiki-main.o) (NOROM_CPUcpsid)
contiki-srf06-cc26xx.a(ddi.o)
                              contiki-srf06-cc26xx.a(oscillators.o) (NOROM_DDI16BitfieldWrite)
contiki-srf06-cc26xx.a(chipinfo.o)
                              contiki-srf06-cc26xx.a(contiki-main.o) (NOROM_ChipInfo_GetSupportedProtocol_BV)
contiki-srf06-cc26xx.a(trng.o)
                              contiki-srf06-cc26xx.a(soc-trng.o) (NOROM_TRNGConfigure)
contiki-srf06-cc26xx.a(queuebuf.o)
                              contiki-srf06-cc26xx.a(rime.o) (queuebuf_init)
contiki-srf06-cc26xx.a(packetbuf.o)
                              contiki-srf06-cc26xx.a(rime.o) (packetbuf_compact)
contiki-srf06-cc26xx.a(netstack.o)
                              contiki-srf06-cc26xx.a(contiki-main.o) (netstack_init)
contiki-srf06-cc26xx.a(linkaddr.o)
                              contiki-srf06-cc26xx.a(broadcast.o) (linkaddr_copy)
contiki-srf06-cc26xx.a(csma.o)
                              contiki-srf06-cc26xx.a(contiki-main.o) (csma_driver)
contiki-srf06-cc26xx.a(mac.o)
                              contiki-srf06-cc26xx.a(csma.o) (mac_call_sent_callback)
contiki-srf06-cc26xx.a(nullrdc.o)
                              contiki-srf06-cc26xx.a(contiki-main.o) (nullrdc_driver)
contiki-srf06-cc26xx.a(nullsec.o)
                              contiki-srf06-cc26xx.a(rime.o) (nullsec_driver)
contiki-srf06-cc26xx.a(sensor-common.o)
                              contiki-srf06-cc26xx.a(bmp-280-sensor.) (sensor_common_read_reg)
contiki-srf06-cc26xx.a(ext-flash.o)
                              contiki-srf06-cc26xx.a(xmem.o) (ext_flash_open)
contiki-srf06-cc26xx.a(board-spi.o)
                              contiki-srf06-cc26xx.a(ext-flash.o) (board_spi_write)
contiki-srf06-cc26xx.a(aux-ctrl.o)
                              contiki-srf06-cc26xx.a(lpm.o) (aux_ctrl_power_up)
contiki-srf06-cc26xx.a(rf-core.o)
                              contiki-srf06-cc26xx.a(ieee-mode.o) (rf_core_is_accessible)
contiki-srf06-cc26xx.a(rf-ble.o)
                              contiki-srf06-cc26xx.a(ieee-mode.o) (rf_ble_is_active)
contiki-srf06-cc26xx.a(memb.o)
                              contiki-srf06-cc26xx.a(queuebuf.o) (memb_init)
contiki-srf06-cc26xx.a(broadcast-annou)
                              contiki-srf06-cc26xx.a(rime.o) (broadcast_announcement_init)
contiki-srf06-cc26xx.a(abc.o)
                              contiki-srf06-cc26xx.a(broadcast.o) (abc_open)
contiki-srf06-cc26xx.a(announcement.o)
                              contiki-srf06-cc26xx.a(rime.o) (announcement_init)
contiki-srf06-cc26xx.a(chameleon.o)
                              contiki-srf06-cc26xx.a(rime.o) (chameleon_init)
contiki-srf06-cc26xx.a(setup_rom.o)
                              contiki-srf06-cc26xx.a(setup.o) (NOROM_SetupAfterColdResetWakeupFromShutDownCfg1)
contiki-srf06-cc26xx.a(mac-sequence.o)
                              contiki-srf06-cc26xx.a(nullrdc.o) (mac_sequence_is_duplicate)
contiki-srf06-cc26xx.a(framer-802154.o)
                              contiki-srf06-cc26xx.a(nullrdc.o) (framer_802154)
contiki-srf06-cc26xx.a(chameleon-bitop)
                              contiki-srf06-cc26xx.a(chameleon.o) (chameleon_bitopt)
contiki-srf06-cc26xx.a(frame802154.o)
                              contiki-srf06-cc26xx.a(framer-802154.o) (frame802154_get_pan_id)
/usr/lib/gcc/arm-none-eabi/4.9.3/../../../arm-none-eabi/lib/armv7-m/libm.a(lib_a-w_exp2.o)
                              contiki-srf06-cc26xx.a(opt-3001-sensor) (exp2)
/usr/lib/gcc/arm-none-eabi/4.9.3/../../../arm-none-eabi/lib/armv7-m/libm.a(lib_a-w_pow.o)
                              /usr/lib/gcc/arm-none-eabi/4.9.3/../../../arm-none-eabi/lib/armv7-m/libm.a(lib_a-w_exp2.o) (pow)
/usr/lib/gcc/arm-none-eabi/4.9.3/../../../arm-none-eabi/lib/armv7-m/libm.a(lib_a-e_pow.o)
                              /usr/lib/gcc/arm-none-eabi/4.9.3/../../../arm-none-eabi/lib/armv7-m/libm.a(lib_a-w_pow.o) (__ieee754_pow)
/usr/lib/gcc/arm-none-eabi/4.9.3/../../../arm-none-eabi/lib/armv7-m/libm.a(lib_a-e_sqrt.o)
                              /usr/lib/gcc/arm-none-eabi/4.9.3/../../../arm-none-eabi/lib/armv7-m/libm.a(lib_a-e_pow.o) (__ieee754_sqrt)
/usr/lib/gcc/arm-none-eabi/4.9.3/../../../arm-none-eabi/lib/armv7-m/libm.a(lib_a-s_fabs.o)
                              /usr/lib/gcc/arm-none-eabi/4.9.3/../../../arm-none-eabi/lib/armv7-m/libm.a(lib_a-e_pow.o) (fabs)
/usr/lib/gcc/arm-none-eabi/4.9.3/../../../arm-none-eabi/lib/armv7-m/libm.a(lib_a-s_finite.o)
                              /usr/lib/gcc/arm-none-eabi/4.9.3/../../../arm-none-eabi/lib/armv7-m/libm.a(lib_a-w_pow.o) (finite)
/usr/lib/gcc/arm-none-eabi/4.9.3/../../../arm-none-eabi/lib/armv7-m/libm.a(lib_a-s_fpclassify.o)
                              /usr/lib/gcc/arm-none-eabi/4.9.3/../../../arm-none-eabi/lib/armv7-m/libm.a(lib_a-w_pow.o) (__fpclassifyd)
/usr/lib/gcc/arm-none-eabi/4.9.3/../../../arm-none-eabi/lib/armv7-m/libm.a(lib_a-s_lib_ver.o)
                              /usr/lib/gcc/arm-none-eabi/4.9.3/../../../arm-none-eabi/lib/armv7-m/libm.a(lib_a-w_pow.o) (__fdlib_version)
/usr/lib/gcc/arm-none-eabi/4.9.3/../../../arm-none-eabi/lib/armv7-m/libm.a(lib_a-s_matherr.o)
                              /usr/lib/gcc/arm-none-eabi/4.9.3/../../../arm-none-eabi/lib/armv7-m/libm.a(lib_a-w_pow.o) (matherr)
/usr/lib/gcc/arm-none-eabi/4.9.3/../../../arm-none-eabi/lib/armv7-m/libm.a(lib_a-s_nan.o)
                              /usr/lib/gcc/arm-none-eabi/4.9.3/../../../arm-none-eabi/lib/armv7-m/libm.a(lib_a-e_pow.o) (nan)
/usr/lib/gcc/arm-none-eabi/4.9.3/../../../arm-none-eabi/lib/armv7-m/libm.a(lib_a-s_rint.o)
                              /usr/lib/gcc/arm-none-eabi/4.9.3/../../../arm-none-eabi/lib/armv7-m/libm.a(lib_a-w_pow.o) (rint)
/usr/lib/gcc/arm-none-eabi/4.9.3/../../../arm-none-eabi/lib/armv7-m/libm.a(lib_a-s_scalbn.o)
                              /usr/lib/gcc/arm-none-eabi/4.9.3/../../../arm-none-eabi/lib/armv7-m/libm.a(lib_a-e_pow.o) (scalbn)
/usr/lib/gcc/arm-none-eabi/4.9.3/../../../arm-none-eabi/lib/armv7-m/libm.a(lib_a-s_copysign.o)
                              /usr/lib/gcc/arm-none-eabi/4.9.3/../../../arm-none-eabi/lib/armv7-m/libm.a(lib_a-s_scalbn.o) (copysign)
/usr/lib/gcc/arm-none-eabi/4.9.3/armv7-m/libgcc.a(_arm_addsubdf3.o)
                              contiki-srf06-cc26xx.a(hdc-1000-sensor) (__aeabi_dsub)
/usr/lib/gcc/arm-none-eabi/4.9.3/armv7-m/libgcc.a(_arm_muldivdf3.o)
                              contiki-srf06-cc26xx.a(opt-3001-sensor) (__aeabi_dmul)
/usr/lib/gcc/arm-none-eabi/4.9.3/armv7-m/libgcc.a(_arm_cmpdf2.o)
                              /usr/lib/gcc/arm-none-eabi/4.9.3/../../../arm-none-eabi/lib/armv7-m/libm.a(lib_a-w_pow.o) (__aeabi_dcmpeq)
/usr/lib/gcc/arm-none-eabi/4.9.3/armv7-m/libgcc.a(_arm_truncdfsf2.o)
                              contiki-srf06-cc26xx.a(opt-3001-sensor) (__aeabi_d2f)
/usr/lib/gcc/arm-none-eabi/4.9.3/armv7-m/libgcc.a(_arm_addsubsf3.o)
                              contiki-srf06-cc26xx.a(tmp-007-sensor.) (__aeabi_i2f)
/usr/lib/gcc/arm-none-eabi/4.9.3/armv7-m/libgcc.a(_arm_muldivsf3.o)
                              contiki-srf06-cc26xx.a(tmp-007-sensor.) (__aeabi_fmul)
/usr/lib/gcc/arm-none-eabi/4.9.3/armv7-m/libgcc.a(_arm_fixsfsi.o)
                              contiki-srf06-cc26xx.a(tmp-007-sensor.) (__aeabi_f2iz)
/usr/lib/gcc/arm-none-eabi/4.9.3/armv7-m/libgcc.a(_aeabi_uldivmod.o)
                              contiki-srf06-cc26xx.a(ieee-mode.o) (__aeabi_uldivmod)
/usr/lib/gcc/arm-none-eabi/4.9.3/armv7-m/libgcc.a(bpabi.o)
                              /usr/lib/gcc/arm-none-eabi/4.9.3/armv7-m/libgcc.a(_aeabi_uldivmod.o) (__gnu_uldivmod_helper)
/usr/lib/gcc/arm-none-eabi/4.9.3/armv7-m/libgcc.a(_dvmd_tls.o)
                              /usr/lib/gcc/arm-none-eabi/4.9.3/armv7-m/libgcc.a(_aeabi_uldivmod.o) (__aeabi_ldiv0)
/usr/lib/gcc/arm-none-eabi/4.9.3/armv7-m/libgcc.a(_divdi3.o)
                              /usr/lib/gcc/arm-none-eabi/4.9.3/armv7-m/libgcc.a(bpabi.o) (__divdi3)
/usr/lib/gcc/arm-none-eabi/4.9.3/armv7-m/libgcc.a(_udivdi3.o)
                              /usr/lib/gcc/arm-none-eabi/4.9.3/armv7-m/libgcc.a(bpabi.o) (__udivdi3)
/usr/lib/gcc/arm-none-eabi/4.9.3/../../../arm-none-eabi/lib/armv7-m/libc.a(lib_a-atoi.o)
                              cc26xx-data-collection.co (atoi)
/usr/lib/gcc/arm-none-eabi/4.9.3/../../../arm-none-eabi/lib/armv7-m/libc.a(lib_a-errno.o)
                              /usr/lib/gcc/arm-none-eabi/4.9.3/../../../arm-none-eabi/lib/armv7-m/libm.a(lib_a-w_pow.o) (__errno)
/usr/lib/gcc/arm-none-eabi/4.9.3/../../../arm-none-eabi/lib/armv7-m/libc.a(lib_a-impure.o)
                              /usr/lib/gcc/arm-none-eabi/4.9.3/../../../arm-none-eabi/lib/armv7-m/libc.a(lib_a-errno.o) (_impure_ptr)
/usr/lib/gcc/arm-none-eabi/4.9.3/../../../arm-none-eabi/lib/armv7-m/libc.a(lib_a-memcmp.o)
                              contiki-srf06-cc26xx.a(linkaddr.o) (memcmp)
/usr/lib/gcc/arm-none-eabi/4.9.3/../../../arm-none-eabi/lib/armv7-m/libc.a(lib_a-memcpy.o)
                              contiki-srf06-cc26xx.a(cfs-coffee.o) (memcpy)
/usr/lib/gcc/arm-none-eabi/4.9.3/../../../arm-none-eabi/lib/armv7-m/libc.a(lib_a-memset.o)
                              contiki-srf06-cc26xx.a(cfs-coffee.o) (memset)
/usr/lib/gcc/arm-none-eabi/4.9.3/../../../arm-none-eabi/lib/armv7-m/libc.a(lib_a-strcmp.o)
                              contiki-srf06-cc26xx.a(cfs-coffee.o) (strcmp)
/usr/lib/gcc/arm-none-eabi/4.9.3/../../../arm-none-eabi/lib/armv7-m/libc.a(lib_a-strlen.o)
                              contiki-srf06-cc26xx.a(sensors.o) (strlen)
/usr/lib/gcc/arm-none-eabi/4.9.3/../../../arm-none-eabi/lib/armv7-m/libc.a(lib_a-strncmp.o)
                              contiki-srf06-cc26xx.a(sensors.o) (strncmp)
/usr/lib/gcc/arm-none-eabi/4.9.3/../../../arm-none-eabi/lib/armv7-m/libc.a(lib_a-strncpy.o)
                              contiki-srf06-cc26xx.a(cfs-coffee.o) (strncpy)
/usr/lib/gcc/arm-none-eabi/4.9.3/../../../arm-none-eabi/lib/armv7-m/libc.a(lib_a-strtol.o)
                              /usr/lib/gcc/arm-none-eabi/4.9.3/../../../arm-none-eabi/lib/armv7-m/libc.a(lib_a-atoi.o) (_strtol_r)
/usr/lib/gcc/arm-none-eabi/4.9.3/../../../arm-none-eabi/lib/armv7-m/libc.a(lib_a-ctype_.o)
                              /usr/lib/gcc/arm-none-eabi/4.9.3/../../../arm-none-eabi/lib/armv7-m/libc.a(lib_a-strtol.o) (__ctype_ptr__)

Allocating common symbols
Common symbol       size              file

packetbuf_addrs     0x8               contiki-srf06-cc26xx.a(packetbuf.o)
v1                  0x4               cc26xx-data-collection.co
record_timestamp    0x4               cc26xx-data-collection.co
v3                  0x2               cc26xx-data-collection.co
linkaddr_node_addr  0x2               contiki-srf06-cc26xx.a(linkaddr.o)
packetbuf_attrs     0x34              contiki-srf06-cc26xx.a(packetbuf.o)
delimiter           0x1               cc26xx-data-collection.co
v2                  0x2               cc26xx-data-collection.co
t0                  0x4               contiki-srf06-cc26xx.a(mpu-9250-sensor)
sensors_flags       0x9               contiki-srf06-cc26xx.a(sensortag-senso)
serial_line_event_message
                    0x1               contiki-srf06-cc26xx.a(serial-line.o)
sensors_event       0x1               contiki-srf06-cc26xx.a(sensors.o)

Discarded input sections

 .text          0x0000000000000000        0x0 obj_srf06-cc26xx/fault-handlers.o
 .data          0x0000000000000000        0x0 obj_srf06-cc26xx/fault-handlers.o
 .bss           0x0000000000000000        0x0 obj_srf06-cc26xx/fault-handlers.o
 .text          0x0000000000000000        0x0 obj_srf06-cc26xx/ccfg.o
 .data          0x0000000000000000        0x0 obj_srf06-cc26xx/ccfg.o
 .bss           0x0000000000000000        0x0 obj_srf06-cc26xx/ccfg.o
 .text          0x0000000000000000        0x0 obj_srf06-cc26xx/startup_gcc.o
 .data          0x0000000000000000        0x0 obj_srf06-cc26xx/startup_gcc.o
 .bss           0x0000000000000000        0x0 obj_srf06-cc26xx/startup_gcc.o
 .text.FaultISRHandler
                0x0000000000000000        0x4 obj_srf06-cc26xx/startup_gcc.o
 .text          0x0000000000000000        0x0 cc26xx-data-collection.co
 .data          0x0000000000000000        0x0 cc26xx-data-collection.co
 .bss           0x0000000000000000        0x0 cc26xx-data-collection.co
 .text          0x0000000000000000        0x0 contiki-srf06-cc26xx.a(contiki-main.o)
 .data          0x0000000000000000        0x0 contiki-srf06-cc26xx.a(contiki-main.o)
 .bss           0x0000000000000000        0x0 contiki-srf06-cc26xx.a(contiki-main.o)
 .text          0x0000000000000000        0x0 contiki-srf06-cc26xx.a(sensors.o)
 .data          0x0000000000000000        0x0 contiki-srf06-cc26xx.a(sensors.o)
 .bss           0x0000000000000000        0x0 contiki-srf06-cc26xx.a(sensors.o)
 .text.sensors_first
                0x0000000000000000        0xc contiki-srf06-cc26xx.a(sensors.o)
 .text.sensors_next
                0x0000000000000000       0x40 contiki-srf06-cc26xx.a(sensors.o)
 .text.sensors_find
                0x0000000000000000       0x50 contiki-srf06-cc26xx.a(sensors.o)
 .text          0x0000000000000000        0x0 contiki-srf06-cc26xx.a(leds.o)
 .data          0x0000000000000000        0x0 contiki-srf06-cc26xx.a(leds.o)
 .bss           0x0000000000000000        0x0 contiki-srf06-cc26xx.a(leds.o)
 .text.leds_blink
                0x0000000000000000       0x30 contiki-srf06-cc26xx.a(leds.o)
 .text.leds_get
                0x0000000000000000        0x4 contiki-srf06-cc26xx.a(leds.o)
 .text.leds_set
                0x0000000000000000        0xc contiki-srf06-cc26xx.a(leds.o)
 .text.leds_toggle
                0x0000000000000000       0x14 contiki-srf06-cc26xx.a(leds.o)
 .text          0x0000000000000000        0x0 contiki-srf06-cc26xx.a(leds-arch.o)
 .data          0x0000000000000000        0x0 contiki-srf06-cc26xx.a(leds-arch.o)
 .bss           0x0000000000000000        0x0 contiki-srf06-cc26xx.a(leds-arch.o)
 .text.leds_arch_get
                0x0000000000000000        0xc contiki-srf06-cc26xx.a(leds-arch.o)
 .text          0x0000000000000000        0x0 contiki-srf06-cc26xx.a(sensortag-senso)
 .data          0x0000000000000000        0x0 contiki-srf06-cc26xx.a(sensortag-senso)
 .bss           0x0000000000000000        0x0 contiki-srf06-cc26xx.a(sensortag-senso)
 .text          0x0000000000000000        0x0 contiki-srf06-cc26xx.a(bmp-280-sensor.)
 .data          0x0000000000000000        0x0 contiki-srf06-cc26xx.a(bmp-280-sensor.)
 .bss           0x0000000000000000        0x0 contiki-srf06-cc26xx.a(bmp-280-sensor.)
 .text          0x0000000000000000        0x0 contiki-srf06-cc26xx.a(tmp-007-sensor.)
 .data          0x0000000000000000        0x0 contiki-srf06-cc26xx.a(tmp-007-sensor.)
 .bss           0x0000000000000000        0x0 contiki-srf06-cc26xx.a(tmp-007-sensor.)
 .text          0x0000000000000000        0x0 contiki-srf06-cc26xx.a(opt-3001-sensor)
 .data          0x0000000000000000        0x0 contiki-srf06-cc26xx.a(opt-3001-sensor)
 .bss           0x0000000000000000        0x0 contiki-srf06-cc26xx.a(opt-3001-sensor)
 .text          0x0000000000000000        0x0 contiki-srf06-cc26xx.a(hdc-1000-sensor)
 .data          0x0000000000000000        0x0 contiki-srf06-cc26xx.a(hdc-1000-sensor)
 .bss           0x0000000000000000        0x0 contiki-srf06-cc26xx.a(hdc-1000-sensor)
 .text          0x0000000000000000        0x0 contiki-srf06-cc26xx.a(mpu-9250-sensor)
 .data          0x0000000000000000        0x0 contiki-srf06-cc26xx.a(mpu-9250-sensor)
 .bss           0x0000000000000000        0x0 contiki-srf06-cc26xx.a(mpu-9250-sensor)
 .text.power_test
                0x0000000000000000       0x10 contiki-srf06-cc26xx.a(mpu-9250-sensor)
 .text          0x0000000000000000        0x0 contiki-srf06-cc26xx.a(button-sensor.o)
 .data          0x0000000000000000        0x0 contiki-srf06-cc26xx.a(button-sensor.o)
 .bss           0x0000000000000000        0x0 contiki-srf06-cc26xx.a(button-sensor.o)
 .text          0x0000000000000000        0x0 contiki-srf06-cc26xx.a(reed-relay.o)
 .data          0x0000000000000000        0x0 contiki-srf06-cc26xx.a(reed-relay.o)
 .bss           0x0000000000000000        0x0 contiki-srf06-cc26xx.a(reed-relay.o)
 .text          0x0000000000000000        0x0 contiki-srf06-cc26xx.a(buzzer.o)
 .data          0x0000000000000000        0x0 contiki-srf06-cc26xx.a(buzzer.o)
 .bss           0x0000000000000000        0x0 contiki-srf06-cc26xx.a(buzzer.o)
 .text          0x0000000000000000        0x0 contiki-srf06-cc26xx.a(board.o)
 .data          0x0000000000000000        0x0 contiki-srf06-cc26xx.a(board.o)
 .bss           0x0000000000000000        0x0 contiki-srf06-cc26xx.a(board.o)
 .text          0x0000000000000000        0x0 contiki-srf06-cc26xx.a(board-i2c.o)
 .data          0x0000000000000000        0x0 contiki-srf06-cc26xx.a(board-i2c.o)
 .bss           0x0000000000000000        0x0 contiki-srf06-cc26xx.a(board-i2c.o)
 .text          0x0000000000000000        0x0 contiki-srf06-cc26xx.a(cfs-coffee.o)
 .data          0x0000000000000000        0x0 contiki-srf06-cc26xx.a(cfs-coffee.o)
 .bss           0x0000000000000000        0x0 contiki-srf06-cc26xx.a(cfs-coffee.o)
 .text.cfs_opendir
                0x0000000000000000        0xc contiki-srf06-cc26xx.a(cfs-coffee.o)
 .text.cfs_readdir
                0x0000000000000000       0xec contiki-srf06-cc26xx.a(cfs-coffee.o)
 .text.cfs_closedir
                0x0000000000000000        0x4 contiki-srf06-cc26xx.a(cfs-coffee.o)
 .text.cfs_coffee_configure_log
                0x0000000000000000       0x68 contiki-srf06-cc26xx.a(cfs-coffee.o)
 .text.cfs_coffee_set_io_semantics
                0x0000000000000000       0x2c contiki-srf06-cc26xx.a(cfs-coffee.o)
 .text.cfs_coffee_format
                0x0000000000000000       0x48 contiki-srf06-cc26xx.a(cfs-coffee.o)
 .text          0x0000000000000000        0x0 contiki-srf06-cc26xx.a(xmem.o)
 .data          0x0000000000000000        0x0 contiki-srf06-cc26xx.a(xmem.o)
 .bss           0x0000000000000000        0x0 contiki-srf06-cc26xx.a(xmem.o)
 .text.xmem_init
                0x0000000000000000        0x4 contiki-srf06-cc26xx.a(xmem.o)
 .text          0x0000000000000000        0x0 contiki-srf06-cc26xx.a(clock.o)
 .data          0x0000000000000000        0x0 contiki-srf06-cc26xx.a(clock.o)
 .bss           0x0000000000000000        0x0 contiki-srf06-cc26xx.a(clock.o)
 .text.clock_wait
                0x0000000000000000       0x58 contiki-srf06-cc26xx.a(clock.o)
 .text.clock_delay_usec
                0x0000000000000000       0x84 contiki-srf06-cc26xx.a(clock.o)
 .text.clock_delay
                0x0000000000000000        0x8 contiki-srf06-cc26xx.a(clock.o)
 .text          0x0000000000000000        0x0 contiki-srf06-cc26xx.a(rtimer-arch.o)
 .data          0x0000000000000000        0x0 contiki-srf06-cc26xx.a(rtimer-arch.o)
 .bss           0x0000000000000000        0x0 contiki-srf06-cc26xx.a(rtimer-arch.o)
 .text          0x0000000000000000        0x0 contiki-srf06-cc26xx.a(soc-rtc.o)
 .data          0x0000000000000000        0x0 contiki-srf06-cc26xx.a(soc-rtc.o)
 .bss           0x0000000000000000        0x0 contiki-srf06-cc26xx.a(soc-rtc.o)
 .text.soc_rtc_get_next_trigger
                0x0000000000000000       0x28 contiki-srf06-cc26xx.a(soc-rtc.o)
 .text          0x0000000000000000        0x0 contiki-srf06-cc26xx.a(contiki-watchdo)
 .data          0x0000000000000000        0x0 contiki-srf06-cc26xx.a(contiki-watchdo)
 .bss           0x0000000000000000        0x0 contiki-srf06-cc26xx.a(contiki-watchdo)
 .text.watchdog_stop
                0x0000000000000000       0x18 contiki-srf06-cc26xx.a(contiki-watchdo)
 .text          0x0000000000000000        0x0 contiki-srf06-cc26xx.a(putchar.o)
 .data          0x0000000000000000        0x0 contiki-srf06-cc26xx.a(putchar.o)
 .bss           0x0000000000000000        0x0 contiki-srf06-cc26xx.a(putchar.o)
 .text          0x0000000000000000        0x0 contiki-srf06-cc26xx.a(ieee-addr.o)
 .data          0x0000000000000000        0x0 contiki-srf06-cc26xx.a(ieee-addr.o)
 .bss           0x0000000000000000        0x0 contiki-srf06-cc26xx.a(ieee-addr.o)
 .text          0x0000000000000000        0x0 contiki-srf06-cc26xx.a(batmon-sensor.o)
 .data          0x0000000000000000        0x0 contiki-srf06-cc26xx.a(batmon-sensor.o)
 .bss           0x0000000000000000        0x0 contiki-srf06-cc26xx.a(batmon-sensor.o)
 .text          0x0000000000000000        0x0 contiki-srf06-cc26xx.a(cc26xx-uart.o)
 .data          0x0000000000000000        0x0 contiki-srf06-cc26xx.a(cc26xx-uart.o)
 .bss           0x0000000000000000        0x0 contiki-srf06-cc26xx.a(cc26xx-uart.o)
 .text          0x0000000000000000        0x0 contiki-srf06-cc26xx.a(lpm.o)
 .data          0x0000000000000000        0x0 contiki-srf06-cc26xx.a(lpm.o)
 .bss           0x0000000000000000        0x0 contiki-srf06-cc26xx.a(lpm.o)
 .text.lpm_shutdown
                0x0000000000000000      0x19c contiki-srf06-cc26xx.a(lpm.o)
 .text          0x0000000000000000        0x0 contiki-srf06-cc26xx.a(gpio-interrupt.)
 .data          0x0000000000000000        0x0 contiki-srf06-cc26xx.a(gpio-interrupt.)
 .bss           0x0000000000000000        0x0 contiki-srf06-cc26xx.a(gpio-interrupt.)
 .text          0x0000000000000000        0x0 contiki-srf06-cc26xx.a(oscillators.o)
 .data          0x0000000000000000        0x0 contiki-srf06-cc26xx.a(oscillators.o)
 .bss           0x0000000000000000        0x0 contiki-srf06-cc26xx.a(oscillators.o)
 .text.oscillators_select_lf_rcosc
                0x0000000000000000       0x3c contiki-srf06-cc26xx.a(oscillators.o)
 .text          0x0000000000000000        0x0 contiki-srf06-cc26xx.a(ieee-mode.o)
 .data          0x0000000000000000        0x0 contiki-srf06-cc26xx.a(ieee-mode.o)
 .bss           0x0000000000000000        0x0 contiki-srf06-cc26xx.a(ieee-mode.o)
 .text          0x0000000000000000        0x0 contiki-srf06-cc26xx.a(random.o)
 .data          0x0000000000000000        0x0 contiki-srf06-cc26xx.a(random.o)
 .bss           0x0000000000000000        0x0 contiki-srf06-cc26xx.a(random.o)
 .text          0x0000000000000000        0x0 contiki-srf06-cc26xx.a(soc-trng.o)
 .data          0x0000000000000000        0x0 contiki-srf06-cc26xx.a(soc-trng.o)
 .bss           0x0000000000000000        0x0 contiki-srf06-cc26xx.a(soc-trng.o)
 .text.soc_trng_rand_asynchronous
                0x0000000000000000      0x13c contiki-srf06-cc26xx.a(soc-trng.o)
 .text          0x0000000000000000        0x0 contiki-srf06-cc26xx.a(dbg-printf.o)
 .data          0x0000000000000000        0x0 contiki-srf06-cc26xx.a(dbg-printf.o)
 .bss           0x0000000000000000        0x0 contiki-srf06-cc26xx.a(dbg-printf.o)
 .text          0x0000000000000000        0x0 contiki-srf06-cc26xx.a(strformat.o)
 .data          0x0000000000000000        0x0 contiki-srf06-cc26xx.a(strformat.o)
 .bss           0x0000000000000000        0x0 contiki-srf06-cc26xx.a(strformat.o)
 .text.format_str
                0x0000000000000000       0x20 contiki-srf06-cc26xx.a(strformat.o)
 .text          0x0000000000000000        0x0 contiki-srf06-cc26xx.a(autostart.o)
 .data          0x0000000000000000        0x0 contiki-srf06-cc26xx.a(autostart.o)
 .bss           0x0000000000000000        0x0 contiki-srf06-cc26xx.a(autostart.o)
 .text.autostart_exit
                0x0000000000000000       0x18 contiki-srf06-cc26xx.a(autostart.o)
 .text          0x0000000000000000        0x0 contiki-srf06-cc26xx.a(energest.o)
 .data          0x0000000000000000        0x0 contiki-srf06-cc26xx.a(energest.o)
 .bss           0x0000000000000000        0x0 contiki-srf06-cc26xx.a(energest.o)
 .text.energest_type_set
                0x0000000000000000        0x4 contiki-srf06-cc26xx.a(energest.o)
 .text.energest_type_time
                0x0000000000000000        0x4 contiki-srf06-cc26xx.a(energest.o)
 .text.energest_flush
                0x0000000000000000        0x4 contiki-srf06-cc26xx.a(energest.o)
 .text          0x0000000000000000        0x0 contiki-srf06-cc26xx.a(ctimer.o)
 .data          0x0000000000000000        0x0 contiki-srf06-cc26xx.a(ctimer.o)
 .bss           0x0000000000000000        0x0 contiki-srf06-cc26xx.a(ctimer.o)
 .text.ctimer_reset
                0x0000000000000000       0x38 contiki-srf06-cc26xx.a(ctimer.o)
 .text.ctimer_restart
                0x0000000000000000       0x38 contiki-srf06-cc26xx.a(ctimer.o)
 .text.ctimer_expired
                0x0000000000000000       0x38 contiki-srf06-cc26xx.a(ctimer.o)
 .text          0x0000000000000000        0x0 contiki-srf06-cc26xx.a(etimer.o)
 .data          0x0000000000000000        0x0 contiki-srf06-cc26xx.a(etimer.o)
 .bss           0x0000000000000000        0x0 contiki-srf06-cc26xx.a(etimer.o)
 .text.etimer_reset_with_new_interval
                0x0000000000000000       0x18 contiki-srf06-cc26xx.a(etimer.o)
 .text.etimer_restart
                0x0000000000000000       0x14 contiki-srf06-cc26xx.a(etimer.o)
 .text.etimer_adjust
                0x0000000000000000        0xc contiki-srf06-cc26xx.a(etimer.o)
 .text.etimer_expiration_time
                0x0000000000000000        0x8 contiki-srf06-cc26xx.a(etimer.o)
 .text.etimer_start_time
                0x0000000000000000        0x4 contiki-srf06-cc26xx.a(etimer.o)
 .text          0x0000000000000000        0x0 contiki-srf06-cc26xx.a(process.o)
 .data          0x0000000000000000        0x0 contiki-srf06-cc26xx.a(process.o)
 .bss           0x0000000000000000        0x0 contiki-srf06-cc26xx.a(process.o)
 .text.process_exit
                0x0000000000000000        0xc contiki-srf06-cc26xx.a(process.o)
 .text.process_is_running
                0x0000000000000000        0xc contiki-srf06-cc26xx.a(process.o)
 .text          0x0000000000000000        0x0 contiki-srf06-cc26xx.a(rtimer.o)
 .data          0x0000000000000000        0x0 contiki-srf06-cc26xx.a(rtimer.o)
 .bss           0x0000000000000000        0x0 contiki-srf06-cc26xx.a(rtimer.o)
 .text.rtimer_set
                0x0000000000000000       0x2c contiki-srf06-cc26xx.a(rtimer.o)
 .text          0x0000000000000000        0x0 contiki-srf06-cc26xx.a(timer.o)
 .data          0x0000000000000000        0x0 contiki-srf06-cc26xx.a(timer.o)
 .bss           0x0000000000000000        0x0 contiki-srf06-cc26xx.a(timer.o)
 .text.timer_restart
                0x0000000000000000        0xc contiki-srf06-cc26xx.a(timer.o)
 .text.timer_remaining
                0x0000000000000000       0x10 contiki-srf06-cc26xx.a(timer.o)
 .text          0x0000000000000000        0x0 contiki-srf06-cc26xx.a(serial-line.o)
 .data          0x0000000000000000        0x0 contiki-srf06-cc26xx.a(serial-line.o)
 .bss           0x0000000000000000        0x0 contiki-srf06-cc26xx.a(serial-line.o)
 .text          0x0000000000000000        0x0 contiki-srf06-cc26xx.a(list.o)
 .data          0x0000000000000000        0x0 contiki-srf06-cc26xx.a(list.o)
 .bss           0x0000000000000000        0x0 contiki-srf06-cc26xx.a(list.o)
 .text.list_copy
                0x0000000000000000        0x8 contiki-srf06-cc26xx.a(list.o)
 .text.list_tail
                0x0000000000000000       0x14 contiki-srf06-cc26xx.a(list.o)
 .text.list_chop
                0x0000000000000000       0x24 contiki-srf06-cc26xx.a(list.o)
 .text.list_pop
                0x0000000000000000        0xc contiki-srf06-cc26xx.a(list.o)
 .text.list_insert
                0x0000000000000000       0x10 contiki-srf06-cc26xx.a(list.o)
 .text          0x0000000000000000        0x0 contiki-srf06-cc26xx.a(ringbuf.o)
 .data          0x0000000000000000        0x0 contiki-srf06-cc26xx.a(ringbuf.o)
 .bss           0x0000000000000000        0x0 contiki-srf06-cc26xx.a(ringbuf.o)
 .text.ringbuf_size
                0x0000000000000000        0x8 contiki-srf06-cc26xx.a(ringbuf.o)
 .text.ringbuf_elements
                0x0000000000000000        0xc contiki-srf06-cc26xx.a(ringbuf.o)
 .text          0x0000000000000000        0x0 contiki-srf06-cc26xx.a(broadcast.o)
 .data          0x0000000000000000        0x0 contiki-srf06-cc26xx.a(broadcast.o)
 .bss           0x0000000000000000        0x0 contiki-srf06-cc26xx.a(broadcast.o)
 .text          0x0000000000000000        0x0 contiki-srf06-cc26xx.a(channel.o)
 .data          0x0000000000000000        0x0 contiki-srf06-cc26xx.a(channel.o)
 .bss           0x0000000000000000        0x0 contiki-srf06-cc26xx.a(channel.o)
 .text          0x0000000000000000        0x0 contiki-srf06-cc26xx.a(rime.o)
 .data          0x0000000000000000        0x0 contiki-srf06-cc26xx.a(rime.o)
 .bss           0x0000000000000000        0x0 contiki-srf06-cc26xx.a(rime.o)
 .text.rime_sniffer_add
                0x0000000000000000        0xc contiki-srf06-cc26xx.a(rime.o)
 .text.rime_sniffer_remove
                0x0000000000000000        0xc contiki-srf06-cc26xx.a(rime.o)
 .text          0x0000000000000000        0x0 contiki-srf06-cc26xx.a(pwr_ctrl.o)
 .data          0x0000000000000000        0x0 contiki-srf06-cc26xx.a(pwr_ctrl.o)
 .bss           0x0000000000000000        0x0 contiki-srf06-cc26xx.a(pwr_ctrl.o)
 .text          0x0000000000000000        0x0 contiki-srf06-cc26xx.a(setup.o)
 .data          0x0000000000000000        0x0 contiki-srf06-cc26xx.a(setup.o)
 .bss           0x0000000000000000        0x0 contiki-srf06-cc26xx.a(setup.o)
 .text          0x0000000000000000        0x0 contiki-srf06-cc26xx.a(aon_rtc.o)
 .data          0x0000000000000000        0x0 contiki-srf06-cc26xx.a(aon_rtc.o)
 .bss           0x0000000000000000        0x0 contiki-srf06-cc26xx.a(aon_rtc.o)
 .text.NOROM_AONRTCCurrent64BitValueGet
                0x0000000000000000       0x20 contiki-srf06-cc26xx.a(aon_rtc.o)
 .text          0x0000000000000000        0x0 contiki-srf06-cc26xx.a(osc.o)
 .data          0x0000000000000000        0x0 contiki-srf06-cc26xx.a(osc.o)
 .bss           0x0000000000000000        0x0 contiki-srf06-cc26xx.a(osc.o)
 .text.NOROM_OSCHF_GetStartupTime
                0x0000000000000000       0x98 contiki-srf06-cc26xx.a(osc.o)
 .text.NOROM_OSCHF_TurnOnXosc
                0x0000000000000000       0x18 contiki-srf06-cc26xx.a(osc.o)
 .text.NOROM_OSCHF_AttemptToSwitchToXosc
                0x0000000000000000       0x5c contiki-srf06-cc26xx.a(osc.o)
 .text.NOROM_OSCHF_SwitchToRcOscTurnOffXosc
                0x0000000000000000       0x34 contiki-srf06-cc26xx.a(osc.o)
 .text.NOROM_OSC_HPOSCRelativeFrequencyOffsetGet
                0x0000000000000000       0x44 contiki-srf06-cc26xx.a(osc.o)
 .text.NOROM_OSC_HPOSCRelativeFrequencyOffsetToRFCoreFormatConvert
                0x0000000000000000        0xc contiki-srf06-cc26xx.a(osc.o)
 .text.NOROM_OSCHF_DebugGetCrystalAmplitude
                0x0000000000000000       0x38 contiki-srf06-cc26xx.a(osc.o)
 .text.NOROM_OSCHF_DebugGetExpectedAverageCrystalAmplitude
                0x0000000000000000       0x1c contiki-srf06-cc26xx.a(osc.o)
 .bss.oscHfGlobals
                0x0000000000000000       0x14 contiki-srf06-cc26xx.a(osc.o)
 .text          0x0000000000000000        0x0 contiki-srf06-cc26xx.a(aon_batmon.o)
 .data          0x0000000000000000        0x0 contiki-srf06-cc26xx.a(aon_batmon.o)
 .bss           0x0000000000000000        0x0 contiki-srf06-cc26xx.a(aon_batmon.o)
 .text          0x0000000000000000        0x0 contiki-srf06-cc26xx.a(sys_ctrl.o)
 .data          0x0000000000000000        0x0 contiki-srf06-cc26xx.a(sys_ctrl.o)
 .bss           0x0000000000000000        0x0 contiki-srf06-cc26xx.a(sys_ctrl.o)
 .text.NOROM_SysCtrlPowerEverything
                0x0000000000000000       0xf4 contiki-srf06-cc26xx.a(sys_ctrl.o)
 .text.NOROM_SysCtrlResetSourceGet
                0x0000000000000000       0x18 contiki-srf06-cc26xx.a(sys_ctrl.o)
 .rodata.g_pui32ModuleCG
                0x0000000000000000       0x34 contiki-srf06-cc26xx.a(sys_ctrl.o)
 .text          0x0000000000000000        0x0 contiki-srf06-cc26xx.a(adi.o)
 .data          0x0000000000000000        0x0 contiki-srf06-cc26xx.a(adi.o)
 .bss           0x0000000000000000        0x0 contiki-srf06-cc26xx.a(adi.o)
 .text.SafeHapiAuxAdiSelect
                0x0000000000000000       0x30 contiki-srf06-cc26xx.a(adi.o)
 .text          0x0000000000000000        0x0 contiki-srf06-cc26xx.a(cpu.o)
 .data          0x0000000000000000        0x0 contiki-srf06-cc26xx.a(cpu.o)
 .bss           0x0000000000000000        0x0 contiki-srf06-cc26xx.a(cpu.o)
 .text.NOROM_CPUprimask
                0x0000000000000000        0x8 contiki-srf06-cc26xx.a(cpu.o)
 .text.NOROM_CPUbasepriGet
                0x0000000000000000        0x8 contiki-srf06-cc26xx.a(cpu.o)
 .text          0x0000000000000000        0x0 contiki-srf06-cc26xx.a(ddi.o)
 .data          0x0000000000000000        0x0 contiki-srf06-cc26xx.a(ddi.o)
 .bss           0x0000000000000000        0x0 contiki-srf06-cc26xx.a(ddi.o)
 .text.NOROM_DDI16BitWrite
                0x0000000000000000       0x48 contiki-srf06-cc26xx.a(ddi.o)
 .text.NOROM_DDI16BitRead
                0x0000000000000000       0x38 contiki-srf06-cc26xx.a(ddi.o)
 .text          0x0000000000000000        0x0 contiki-srf06-cc26xx.a(chipinfo.o)
 .data          0x0000000000000000        0x0 contiki-srf06-cc26xx.a(chipinfo.o)
 .bss           0x0000000000000000        0x0 contiki-srf06-cc26xx.a(chipinfo.o)
 .text.NOROM_ChipInfo_GetPackageType
                0x0000000000000000       0x18 contiki-srf06-cc26xx.a(chipinfo.o)
 .text          0x0000000000000000        0x0 contiki-srf06-cc26xx.a(trng.o)
 .data          0x0000000000000000        0x0 contiki-srf06-cc26xx.a(trng.o)
 .bss           0x0000000000000000        0x0 contiki-srf06-cc26xx.a(trng.o)
 .text.NOROM_TRNGNumberGet
                0x0000000000000000       0x20 contiki-srf06-cc26xx.a(trng.o)
 .text          0x0000000000000000        0x0 contiki-srf06-cc26xx.a(queuebuf.o)
 .data          0x0000000000000000        0x0 contiki-srf06-cc26xx.a(queuebuf.o)
 .bss           0x0000000000000000        0x0 contiki-srf06-cc26xx.a(queuebuf.o)
 .text.queuebuf_numfree
                0x0000000000000000        0xc contiki-srf06-cc26xx.a(queuebuf.o)
 .text.queuebuf_update_from_packetbuf
                0x0000000000000000       0x1c contiki-srf06-cc26xx.a(queuebuf.o)
 .text.queuebuf_dataptr
                0x0000000000000000       0x18 contiki-srf06-cc26xx.a(queuebuf.o)
 .text.queuebuf_datalen
                0x0000000000000000        0x8 contiki-srf06-cc26xx.a(queuebuf.o)
 .text.queuebuf_addr
                0x0000000000000000        0xc contiki-srf06-cc26xx.a(queuebuf.o)
 .text.queuebuf_debug_print
                0x0000000000000000        0x4 contiki-srf06-cc26xx.a(queuebuf.o)
 .text          0x0000000000000000        0x0 contiki-srf06-cc26xx.a(packetbuf.o)
 .data          0x0000000000000000        0x0 contiki-srf06-cc26xx.a(packetbuf.o)
 .bss           0x0000000000000000        0x0 contiki-srf06-cc26xx.a(packetbuf.o)
 .text.packetbuf_hdrlen
                0x0000000000000000       0x18 contiki-srf06-cc26xx.a(packetbuf.o)
 .text.packetbuf_remaininglen
                0x0000000000000000       0x28 contiki-srf06-cc26xx.a(packetbuf.o)
 .text          0x0000000000000000        0x0 contiki-srf06-cc26xx.a(netstack.o)
 .data          0x0000000000000000        0x0 contiki-srf06-cc26xx.a(netstack.o)
 .bss           0x0000000000000000        0x0 contiki-srf06-cc26xx.a(netstack.o)
 .text          0x0000000000000000        0x0 contiki-srf06-cc26xx.a(linkaddr.o)
 .data          0x0000000000000000        0x0 contiki-srf06-cc26xx.a(linkaddr.o)
 .bss           0x0000000000000000        0x0 contiki-srf06-cc26xx.a(linkaddr.o)
 .text.linkaddr_set_node_addr
                0x0000000000000000        0xc contiki-srf06-cc26xx.a(linkaddr.o)
 .text          0x0000000000000000        0x0 contiki-srf06-cc26xx.a(csma.o)
 .data          0x0000000000000000        0x0 contiki-srf06-cc26xx.a(csma.o)
 .bss           0x0000000000000000        0x0 contiki-srf06-cc26xx.a(csma.o)
 .text          0x0000000000000000        0x0 contiki-srf06-cc26xx.a(mac.o)
 .data          0x0000000000000000        0x0 contiki-srf06-cc26xx.a(mac.o)
 .bss           0x0000000000000000        0x0 contiki-srf06-cc26xx.a(mac.o)
 .text          0x0000000000000000        0x0 contiki-srf06-cc26xx.a(nullrdc.o)
 .data          0x0000000000000000        0x0 contiki-srf06-cc26xx.a(nullrdc.o)
 .bss           0x0000000000000000        0x0 contiki-srf06-cc26xx.a(nullrdc.o)
 .text          0x0000000000000000        0x0 contiki-srf06-cc26xx.a(nullsec.o)
 .data          0x0000000000000000        0x0 contiki-srf06-cc26xx.a(nullsec.o)
 .bss           0x0000000000000000        0x0 contiki-srf06-cc26xx.a(nullsec.o)
 .text          0x0000000000000000        0x0 contiki-srf06-cc26xx.a(sensor-common.o)
 .data          0x0000000000000000        0x0 contiki-srf06-cc26xx.a(sensor-common.o)
 .bss           0x0000000000000000        0x0 contiki-srf06-cc26xx.a(sensor-common.o)
 .text          0x0000000000000000        0x0 contiki-srf06-cc26xx.a(ext-flash.o)
 .data          0x0000000000000000        0x0 contiki-srf06-cc26xx.a(ext-flash.o)
 .bss           0x0000000000000000        0x0 contiki-srf06-cc26xx.a(ext-flash.o)
 .text.ext_flash_test
                0x0000000000000000       0x14 contiki-srf06-cc26xx.a(ext-flash.o)
 .text          0x0000000000000000        0x0 contiki-srf06-cc26xx.a(board-spi.o)
 .data          0x0000000000000000        0x0 contiki-srf06-cc26xx.a(board-spi.o)
 .bss           0x0000000000000000        0x0 contiki-srf06-cc26xx.a(board-spi.o)
 .text          0x0000000000000000        0x0 contiki-srf06-cc26xx.a(aux-ctrl.o)
 .data          0x0000000000000000        0x0 contiki-srf06-cc26xx.a(aux-ctrl.o)
 .bss           0x0000000000000000        0x0 contiki-srf06-cc26xx.a(aux-ctrl.o)
 .text          0x0000000000000000        0x0 contiki-srf06-cc26xx.a(rf-core.o)
 .data          0x0000000000000000        0x0 contiki-srf06-cc26xx.a(rf-core.o)
 .bss           0x0000000000000000        0x0 contiki-srf06-cc26xx.a(rf-core.o)
 .text.rf_core_primary_mode_abort
                0x0000000000000000       0x14 contiki-srf06-cc26xx.a(rf-core.o)
 .text.rf_core_primary_mode_restore
                0x0000000000000000       0x14 contiki-srf06-cc26xx.a(rf-core.o)
 .text          0x0000000000000000        0x0 contiki-srf06-cc26xx.a(rf-ble.o)
 .data          0x0000000000000000        0x0 contiki-srf06-cc26xx.a(rf-ble.o)
 .bss           0x0000000000000000        0x0 contiki-srf06-cc26xx.a(rf-ble.o)
 .text.process_thread_rf_ble_beacon_process
                0x0000000000000000      0x270 contiki-srf06-cc26xx.a(rf-ble.o)
 .text.rf_ble_beacond_config
                0x0000000000000000       0x4c contiki-srf06-cc26xx.a(rf-ble.o)
 .text.rf_ble_beacond_start
                0x0000000000000000       0x38 contiki-srf06-cc26xx.a(rf-ble.o)
 .text.rf_ble_beacond_stop
                0x0000000000000000        0xc contiki-srf06-cc26xx.a(rf-ble.o)
 .data.rf_ble_beacon_process
                0x0000000000000000       0x10 contiki-srf06-cc26xx.a(rf-ble.o)
 .bss.p         0x0000000000000000        0x4 contiki-srf06-cc26xx.a(rf-ble.o)
 .bss.ble_params_buf
                0x0000000000000000       0x20 contiki-srf06-cc26xx.a(rf-ble.o)
 .rodata.str1.4
                0x0000000000000000       0x26 contiki-srf06-cc26xx.a(rf-ble.o)
 .bss.ble_adv_et
                0x0000000000000000       0x10 contiki-srf06-cc26xx.a(rf-ble.o)
 .bss.i         0x0000000000000000        0x4 contiki-srf06-cc26xx.a(rf-ble.o)
 .bss.payload   0x0000000000000000       0x40 contiki-srf06-cc26xx.a(rf-ble.o)
 .data.beacond_config
                0x0000000000000000       0x24 contiki-srf06-cc26xx.a(rf-ble.o)
 .data.ble_overrides
                0x0000000000000000       0x1c contiki-srf06-cc26xx.a(rf-ble.o)
 .text          0x0000000000000000        0x0 contiki-srf06-cc26xx.a(memb.o)
 .data          0x0000000000000000        0x0 contiki-srf06-cc26xx.a(memb.o)
 .bss           0x0000000000000000        0x0 contiki-srf06-cc26xx.a(memb.o)
 .text.memb_numfree
                0x0000000000000000       0x1c contiki-srf06-cc26xx.a(memb.o)
 .text          0x0000000000000000        0x0 contiki-srf06-cc26xx.a(broadcast-annou)
 .data          0x0000000000000000        0x0 contiki-srf06-cc26xx.a(broadcast-annou)
 .bss           0x0000000000000000        0x0 contiki-srf06-cc26xx.a(broadcast-annou)
 .text.broadcast_announcement_stop
                0x0000000000000000       0x24 contiki-srf06-cc26xx.a(broadcast-annou)
 .text.broadcast_announcement_beacon_interval
                0x0000000000000000        0xc contiki-srf06-cc26xx.a(broadcast-annou)
 .text          0x0000000000000000        0x0 contiki-srf06-cc26xx.a(abc.o)
 .data          0x0000000000000000        0x0 contiki-srf06-cc26xx.a(abc.o)
 .bss           0x0000000000000000        0x0 contiki-srf06-cc26xx.a(abc.o)
 .text          0x0000000000000000        0x0 contiki-srf06-cc26xx.a(announcement.o)
 .data          0x0000000000000000        0x0 contiki-srf06-cc26xx.a(announcement.o)
 .bss           0x0000000000000000        0x0 contiki-srf06-cc26xx.a(announcement.o)
 .text.announcement_register
                0x0000000000000000       0x38 contiki-srf06-cc26xx.a(announcement.o)
 .text.announcement_remove
                0x0000000000000000        0xc contiki-srf06-cc26xx.a(announcement.o)
 .text.announcement_remove_value
                0x0000000000000000       0x20 contiki-srf06-cc26xx.a(announcement.o)
 .text.announcement_set_value
                0x0000000000000000       0x24 contiki-srf06-cc26xx.a(announcement.o)
 .text.announcement_bump
                0x0000000000000000       0x24 contiki-srf06-cc26xx.a(announcement.o)
 .text.announcement_listen
                0x0000000000000000       0x10 contiki-srf06-cc26xx.a(announcement.o)
 .text.announcement_register_listen_callback
                0x0000000000000000        0xc contiki-srf06-cc26xx.a(announcement.o)
 .bss.listen_callback
                0x0000000000000000        0x4 contiki-srf06-cc26xx.a(announcement.o)
 .text          0x0000000000000000        0x0 contiki-srf06-cc26xx.a(chameleon.o)
 .data          0x0000000000000000        0x0 contiki-srf06-cc26xx.a(chameleon.o)
 .bss           0x0000000000000000        0x0 contiki-srf06-cc26xx.a(chameleon.o)
 .text          0x0000000000000000        0x0 contiki-srf06-cc26xx.a(setup_rom.o)
 .data          0x0000000000000000        0x0 contiki-srf06-cc26xx.a(setup_rom.o)
 .bss           0x0000000000000000        0x0 contiki-srf06-cc26xx.a(setup_rom.o)
 .text.NOROM_SetupGetTrimForRcOscLfRtuneCtuneTrim
                0x0000000000000000       0x18 contiki-srf06-cc26xx.a(setup_rom.o)
 .text.NOROM_SetupGetTrimForXoscHfIbiastherm
                0x0000000000000000       0x10 contiki-srf06-cc26xx.a(setup_rom.o)
 .text.NOROM_SetupGetTrimForAmpcompTh2
                0x0000000000000000       0x10 contiki-srf06-cc26xx.a(setup_rom.o)
 .text.NOROM_SetupGetTrimForAmpcompTh1
                0x0000000000000000       0x14 contiki-srf06-cc26xx.a(setup_rom.o)
 .text.NOROM_SetupGetTrimForDblrLoopFilterResetVoltage
                0x0000000000000000       0x14 contiki-srf06-cc26xx.a(setup_rom.o)
 .text.NOROM_SetupGetTrimForAdcShModeEn
                0x0000000000000000       0x14 contiki-srf06-cc26xx.a(setup_rom.o)
 .text.NOROM_SetupGetTrimForAdcShVbufEn
                0x0000000000000000       0x14 contiki-srf06-cc26xx.a(setup_rom.o)
 .text.NOROM_SetupGetTrimForXoscHfCtl
                0x0000000000000000        0xc contiki-srf06-cc26xx.a(setup_rom.o)
 .text.NOROM_SetupGetTrimForXoscHfFastStart
                0x0000000000000000       0x10 contiki-srf06-cc26xx.a(setup_rom.o)
 .text.NOROM_SetupGetTrimForRadcExtCfg
                0x0000000000000000       0x10 contiki-srf06-cc26xx.a(setup_rom.o)
 .text.NOROM_SetupGetTrimForRcOscLfIBiasTrim
                0x0000000000000000       0x14 contiki-srf06-cc26xx.a(setup_rom.o)
 .text.NOROM_SetupGetTrimForXoscLfRegulatorAndCmirrwrRatio
                0x0000000000000000       0x14 contiki-srf06-cc26xx.a(setup_rom.o)
 .text.NOROM_SetupSetAonRtcSubSecInc
                0x0000000000000000       0x38 contiki-srf06-cc26xx.a(setup_rom.o)
 .text          0x0000000000000000        0x0 contiki-srf06-cc26xx.a(mac-sequence.o)
 .data          0x0000000000000000        0x0 contiki-srf06-cc26xx.a(mac-sequence.o)
 .bss           0x0000000000000000        0x0 contiki-srf06-cc26xx.a(mac-sequence.o)
 .text          0x0000000000000000        0x0 contiki-srf06-cc26xx.a(framer-802154.o)
 .data          0x0000000000000000        0x0 contiki-srf06-cc26xx.a(framer-802154.o)
 .bss           0x0000000000000000        0x0 contiki-srf06-cc26xx.a(framer-802154.o)
 .text          0x0000000000000000        0x0 contiki-srf06-cc26xx.a(chameleon-bitop)
 .data          0x0000000000000000        0x0 contiki-srf06-cc26xx.a(chameleon-bitop)
 .bss           0x0000000000000000        0x0 contiki-srf06-cc26xx.a(chameleon-bitop)
 .text          0x0000000000000000        0x0 contiki-srf06-cc26xx.a(frame802154.o)
 .data          0x0000000000000000        0x0 contiki-srf06-cc26xx.a(frame802154.o)
 .bss           0x0000000000000000        0x0 contiki-srf06-cc26xx.a(frame802154.o)
 .text.frame802154_set_pan_id
                0x0000000000000000        0xc contiki-srf06-cc26xx.a(frame802154.o)
 .text.frame802154_check_dest_panid
                0x0000000000000000       0x3c contiki-srf06-cc26xx.a(frame802154.o)
 .text.frame802154_extract_linkaddr
                0x0000000000000000       0x98 contiki-srf06-cc26xx.a(frame802154.o)
 .text          0x0000000000000000        0x0 /usr/lib/gcc/arm-none-eabi/4.9.3/../../../arm-none-eabi/lib/armv7-m/libm.a(lib_a-w_exp2.o)
 .data          0x0000000000000000        0x0 /usr/lib/gcc/arm-none-eabi/4.9.3/../../../arm-none-eabi/lib/armv7-m/libm.a(lib_a-w_exp2.o)
 .bss           0x0000000000000000        0x0 /usr/lib/gcc/arm-none-eabi/4.9.3/../../../arm-none-eabi/lib/armv7-m/libm.a(lib_a-w_exp2.o)
 .text          0x0000000000000000        0x0 /usr/lib/gcc/arm-none-eabi/4.9.3/../../../arm-none-eabi/lib/armv7-m/libm.a(lib_a-w_pow.o)
 .data          0x0000000000000000        0x0 /usr/lib/gcc/arm-none-eabi/4.9.3/../../../arm-none-eabi/lib/armv7-m/libm.a(lib_a-w_pow.o)
 .bss           0x0000000000000000        0x0 /usr/lib/gcc/arm-none-eabi/4.9.3/../../../arm-none-eabi/lib/armv7-m/libm.a(lib_a-w_pow.o)
 .text          0x0000000000000000        0x0 /usr/lib/gcc/arm-none-eabi/4.9.3/../../../arm-none-eabi/lib/armv7-m/libm.a(lib_a-e_pow.o)
 .data          0x0000000000000000        0x0 /usr/lib/gcc/arm-none-eabi/4.9.3/../../../arm-none-eabi/lib/armv7-m/libm.a(lib_a-e_pow.o)
 .bss           0x0000000000000000        0x0 /usr/lib/gcc/arm-none-eabi/4.9.3/../../../arm-none-eabi/lib/armv7-m/libm.a(lib_a-e_pow.o)
 .text          0x0000000000000000        0x0 /usr/lib/gcc/arm-none-eabi/4.9.3/../../../arm-none-eabi/lib/armv7-m/libm.a(lib_a-e_sqrt.o)
 .data          0x0000000000000000        0x0 /usr/lib/gcc/arm-none-eabi/4.9.3/../../../arm-none-eabi/lib/armv7-m/libm.a(lib_a-e_sqrt.o)
 .bss           0x0000000000000000        0x0 /usr/lib/gcc/arm-none-eabi/4.9.3/../../../arm-none-eabi/lib/armv7-m/libm.a(lib_a-e_sqrt.o)
 .text          0x0000000000000000        0x0 /usr/lib/gcc/arm-none-eabi/4.9.3/../../../arm-none-eabi/lib/armv7-m/libm.a(lib_a-s_fabs.o)
 .data          0x0000000000000000        0x0 /usr/lib/gcc/arm-none-eabi/4.9.3/../../../arm-none-eabi/lib/armv7-m/libm.a(lib_a-s_fabs.o)
 .bss           0x0000000000000000        0x0 /usr/lib/gcc/arm-none-eabi/4.9.3/../../../arm-none-eabi/lib/armv7-m/libm.a(lib_a-s_fabs.o)
 .text          0x0000000000000000        0x0 /usr/lib/gcc/arm-none-eabi/4.9.3/../../../arm-none-eabi/lib/armv7-m/libm.a(lib_a-s_finite.o)
 .data          0x0000000000000000        0x0 /usr/lib/gcc/arm-none-eabi/4.9.3/../../../arm-none-eabi/lib/armv7-m/libm.a(lib_a-s_finite.o)
 .bss           0x0000000000000000        0x0 /usr/lib/gcc/arm-none-eabi/4.9.3/../../../arm-none-eabi/lib/armv7-m/libm.a(lib_a-s_finite.o)
 .text          0x0000000000000000        0x0 /usr/lib/gcc/arm-none-eabi/4.9.3/../../../arm-none-eabi/lib/armv7-m/libm.a(lib_a-s_fpclassify.o)
 .data          0x0000000000000000        0x0 /usr/lib/gcc/arm-none-eabi/4.9.3/../../../arm-none-eabi/lib/armv7-m/libm.a(lib_a-s_fpclassify.o)
 .bss           0x0000000000000000        0x0 /usr/lib/gcc/arm-none-eabi/4.9.3/../../../arm-none-eabi/lib/armv7-m/libm.a(lib_a-s_fpclassify.o)
 .text          0x0000000000000000        0x0 /usr/lib/gcc/arm-none-eabi/4.9.3/../../../arm-none-eabi/lib/armv7-m/libm.a(lib_a-s_lib_ver.o)
 .data          0x0000000000000000        0x0 /usr/lib/gcc/arm-none-eabi/4.9.3/../../../arm-none-eabi/lib/armv7-m/libm.a(lib_a-s_lib_ver.o)
 .bss           0x0000000000000000        0x0 /usr/lib/gcc/arm-none-eabi/4.9.3/../../../arm-none-eabi/lib/armv7-m/libm.a(lib_a-s_lib_ver.o)
 .text          0x0000000000000000        0x0 /usr/lib/gcc/arm-none-eabi/4.9.3/../../../arm-none-eabi/lib/armv7-m/libm.a(lib_a-s_matherr.o)
 .data          0x0000000000000000        0x0 /usr/lib/gcc/arm-none-eabi/4.9.3/../../../arm-none-eabi/lib/armv7-m/libm.a(lib_a-s_matherr.o)
 .bss           0x0000000000000000        0x0 /usr/lib/gcc/arm-none-eabi/4.9.3/../../../arm-none-eabi/lib/armv7-m/libm.a(lib_a-s_matherr.o)
 .text          0x0000000000000000        0x0 /usr/lib/gcc/arm-none-eabi/4.9.3/../../../arm-none-eabi/lib/armv7-m/libm.a(lib_a-s_nan.o)
 .data          0x0000000000000000        0x0 /usr/lib/gcc/arm-none-eabi/4.9.3/../../../arm-none-eabi/lib/armv7-m/libm.a(lib_a-s_nan.o)
 .bss           0x0000000000000000        0x0 /usr/lib/gcc/arm-none-eabi/4.9.3/../../../arm-none-eabi/lib/armv7-m/libm.a(lib_a-s_nan.o)
 .text          0x0000000000000000        0x0 /usr/lib/gcc/arm-none-eabi/4.9.3/../../../arm-none-eabi/lib/armv7-m/libm.a(lib_a-s_rint.o)
 .data          0x0000000000000000        0x0 /usr/lib/gcc/arm-none-eabi/4.9.3/../../../arm-none-eabi/lib/armv7-m/libm.a(lib_a-s_rint.o)
 .bss           0x0000000000000000        0x0 /usr/lib/gcc/arm-none-eabi/4.9.3/../../../arm-none-eabi/lib/armv7-m/libm.a(lib_a-s_rint.o)
 .text          0x0000000000000000        0x0 /usr/lib/gcc/arm-none-eabi/4.9.3/../../../arm-none-eabi/lib/armv7-m/libm.a(lib_a-s_scalbn.o)
 .data          0x0000000000000000        0x0 /usr/lib/gcc/arm-none-eabi/4.9.3/../../../arm-none-eabi/lib/armv7-m/libm.a(lib_a-s_scalbn.o)
 .bss           0x0000000000000000        0x0 /usr/lib/gcc/arm-none-eabi/4.9.3/../../../arm-none-eabi/lib/armv7-m/libm.a(lib_a-s_scalbn.o)
 .text          0x0000000000000000        0x0 /usr/lib/gcc/arm-none-eabi/4.9.3/../../../arm-none-eabi/lib/armv7-m/libm.a(lib_a-s_copysign.o)
 .data          0x0000000000000000        0x0 /usr/lib/gcc/arm-none-eabi/4.9.3/../../../arm-none-eabi/lib/armv7-m/libm.a(lib_a-s_copysign.o)
 .bss           0x0000000000000000        0x0 /usr/lib/gcc/arm-none-eabi/4.9.3/../../../arm-none-eabi/lib/armv7-m/libm.a(lib_a-s_copysign.o)
 .data          0x0000000000000000        0x0 /usr/lib/gcc/arm-none-eabi/4.9.3/armv7-m/libgcc.a(_arm_addsubdf3.o)
 .bss           0x0000000000000000        0x0 /usr/lib/gcc/arm-none-eabi/4.9.3/armv7-m/libgcc.a(_arm_addsubdf3.o)
 .data          0x0000000000000000        0x0 /usr/lib/gcc/arm-none-eabi/4.9.3/armv7-m/libgcc.a(_arm_muldivdf3.o)
 .bss           0x0000000000000000        0x0 /usr/lib/gcc/arm-none-eabi/4.9.3/armv7-m/libgcc.a(_arm_muldivdf3.o)
 .data          0x0000000000000000        0x0 /usr/lib/gcc/arm-none-eabi/4.9.3/armv7-m/libgcc.a(_arm_cmpdf2.o)
 .bss           0x0000000000000000        0x0 /usr/lib/gcc/arm-none-eabi/4.9.3/armv7-m/libgcc.a(_arm_cmpdf2.o)
 .data          0x0000000000000000        0x0 /usr/lib/gcc/arm-none-eabi/4.9.3/armv7-m/libgcc.a(_arm_truncdfsf2.o)
 .bss           0x0000000000000000        0x0 /usr/lib/gcc/arm-none-eabi/4.9.3/armv7-m/libgcc.a(_arm_truncdfsf2.o)
 .data          0x0000000000000000        0x0 /usr/lib/gcc/arm-none-eabi/4.9.3/armv7-m/libgcc.a(_arm_addsubsf3.o)
 .bss           0x0000000000000000        0x0 /usr/lib/gcc/arm-none-eabi/4.9.3/armv7-m/libgcc.a(_arm_addsubsf3.o)
 .data          0x0000000000000000        0x0 /usr/lib/gcc/arm-none-eabi/4.9.3/armv7-m/libgcc.a(_arm_muldivsf3.o)
 .bss           0x0000000000000000        0x0 /usr/lib/gcc/arm-none-eabi/4.9.3/armv7-m/libgcc.a(_arm_muldivsf3.o)
 .data          0x0000000000000000        0x0 /usr/lib/gcc/arm-none-eabi/4.9.3/armv7-m/libgcc.a(_arm_fixsfsi.o)
 .bss           0x0000000000000000        0x0 /usr/lib/gcc/arm-none-eabi/4.9.3/armv7-m/libgcc.a(_arm_fixsfsi.o)
 .data          0x0000000000000000        0x0 /usr/lib/gcc/arm-none-eabi/4.9.3/armv7-m/libgcc.a(_aeabi_uldivmod.o)
 .bss           0x0000000000000000        0x0 /usr/lib/gcc/arm-none-eabi/4.9.3/armv7-m/libgcc.a(_aeabi_uldivmod.o)
 .data          0x0000000000000000        0x0 /usr/lib/gcc/arm-none-eabi/4.9.3/armv7-m/libgcc.a(bpabi.o)
 .bss           0x0000000000000000        0x0 /usr/lib/gcc/arm-none-eabi/4.9.3/armv7-m/libgcc.a(bpabi.o)
 .data          0x0000000000000000        0x0 /usr/lib/gcc/arm-none-eabi/4.9.3/armv7-m/libgcc.a(_dvmd_tls.o)
 .bss           0x0000000000000000        0x0 /usr/lib/gcc/arm-none-eabi/4.9.3/armv7-m/libgcc.a(_dvmd_tls.o)
 .data          0x0000000000000000        0x0 /usr/lib/gcc/arm-none-eabi/4.9.3/armv7-m/libgcc.a(_divdi3.o)
 .bss           0x0000000000000000        0x0 /usr/lib/gcc/arm-none-eabi/4.9.3/armv7-m/libgcc.a(_divdi3.o)
 .ARM.extab     0x0000000000000000        0x0 /usr/lib/gcc/arm-none-eabi/4.9.3/armv7-m/libgcc.a(_divdi3.o)
 .data          0x0000000000000000        0x0 /usr/lib/gcc/arm-none-eabi/4.9.3/armv7-m/libgcc.a(_udivdi3.o)
 .bss           0x0000000000000000        0x0 /usr/lib/gcc/arm-none-eabi/4.9.3/armv7-m/libgcc.a(_udivdi3.o)
 .ARM.extab     0x0000000000000000        0x0 /usr/lib/gcc/arm-none-eabi/4.9.3/armv7-m/libgcc.a(_udivdi3.o)
 .text          0x0000000000000000        0x0 /usr/lib/gcc/arm-none-eabi/4.9.3/../../../arm-none-eabi/lib/armv7-m/libc.a(lib_a-atoi.o)
 .data          0x0000000000000000        0x0 /usr/lib/gcc/arm-none-eabi/4.9.3/../../../arm-none-eabi/lib/armv7-m/libc.a(lib_a-atoi.o)
 .bss           0x0000000000000000        0x0 /usr/lib/gcc/arm-none-eabi/4.9.3/../../../arm-none-eabi/lib/armv7-m/libc.a(lib_a-atoi.o)
 .text._atoi_r  0x0000000000000000        0x8 /usr/lib/gcc/arm-none-eabi/4.9.3/../../../arm-none-eabi/lib/armv7-m/libc.a(lib_a-atoi.o)
 .text          0x0000000000000000        0x0 /usr/lib/gcc/arm-none-eabi/4.9.3/../../../arm-none-eabi/lib/armv7-m/libc.a(lib_a-errno.o)
 .data          0x0000000000000000        0x0 /usr/lib/gcc/arm-none-eabi/4.9.3/../../../arm-none-eabi/lib/armv7-m/libc.a(lib_a-errno.o)
 .bss           0x0000000000000000        0x0 /usr/lib/gcc/arm-none-eabi/4.9.3/../../../arm-none-eabi/lib/armv7-m/libc.a(lib_a-errno.o)
 .text          0x0000000000000000        0x0 /usr/lib/gcc/arm-none-eabi/4.9.3/../../../arm-none-eabi/lib/armv7-m/libc.a(lib_a-impure.o)
 .data          0x0000000000000000        0x0 /usr/lib/gcc/arm-none-eabi/4.9.3/../../../arm-none-eabi/lib/armv7-m/libc.a(lib_a-impure.o)
 .bss           0x0000000000000000        0x0 /usr/lib/gcc/arm-none-eabi/4.9.3/../../../arm-none-eabi/lib/armv7-m/libc.a(lib_a-impure.o)
 .rodata._global_impure_ptr
                0x0000000000000000        0x4 /usr/lib/gcc/arm-none-eabi/4.9.3/../../../arm-none-eabi/lib/armv7-m/libc.a(lib_a-impure.o)
 .text          0x0000000000000000        0x0 /usr/lib/gcc/arm-none-eabi/4.9.3/../../../arm-none-eabi/lib/armv7-m/libc.a(lib_a-memcmp.o)
 .data          0x0000000000000000        0x0 /usr/lib/gcc/arm-none-eabi/4.9.3/../../../arm-none-eabi/lib/armv7-m/libc.a(lib_a-memcmp.o)
 .bss           0x0000000000000000        0x0 /usr/lib/gcc/arm-none-eabi/4.9.3/../../../arm-none-eabi/lib/armv7-m/libc.a(lib_a-memcmp.o)
 .data          0x0000000000000000        0x0 /usr/lib/gcc/arm-none-eabi/4.9.3/../../../arm-none-eabi/lib/armv7-m/libc.a(lib_a-memcpy.o)
 .bss           0x0000000000000000        0x0 /usr/lib/gcc/arm-none-eabi/4.9.3/../../../arm-none-eabi/lib/armv7-m/libc.a(lib_a-memcpy.o)
 .text          0x0000000000000000        0x0 /usr/lib/gcc/arm-none-eabi/4.9.3/../../../arm-none-eabi/lib/armv7-m/libc.a(lib_a-memset.o)
 .data          0x0000000000000000        0x0 /usr/lib/gcc/arm-none-eabi/4.9.3/../../../arm-none-eabi/lib/armv7-m/libc.a(lib_a-memset.o)
 .bss           0x0000000000000000        0x0 /usr/lib/gcc/arm-none-eabi/4.9.3/../../../arm-none-eabi/lib/armv7-m/libc.a(lib_a-memset.o)
 .data          0x0000000000000000        0x0 /usr/lib/gcc/arm-none-eabi/4.9.3/../../../arm-none-eabi/lib/armv7-m/libc.a(lib_a-strcmp.o)
 .bss           0x0000000000000000        0x0 /usr/lib/gcc/arm-none-eabi/4.9.3/../../../arm-none-eabi/lib/armv7-m/libc.a(lib_a-strcmp.o)
 .eh_frame      0x0000000000000000       0x38 /usr/lib/gcc/arm-none-eabi/4.9.3/../../../arm-none-eabi/lib/armv7-m/libc.a(lib_a-strcmp.o)
 .text          0x0000000000000000        0x0 /usr/lib/gcc/arm-none-eabi/4.9.3/../../../arm-none-eabi/lib/armv7-m/libc.a(lib_a-strlen.o)
 .data          0x0000000000000000        0x0 /usr/lib/gcc/arm-none-eabi/4.9.3/../../../arm-none-eabi/lib/armv7-m/libc.a(lib_a-strlen.o)
 .bss           0x0000000000000000        0x0 /usr/lib/gcc/arm-none-eabi/4.9.3/../../../arm-none-eabi/lib/armv7-m/libc.a(lib_a-strlen.o)
 .text          0x0000000000000000        0x0 /usr/lib/gcc/arm-none-eabi/4.9.3/../../../arm-none-eabi/lib/armv7-m/libc.a(lib_a-strncmp.o)
 .data          0x0000000000000000        0x0 /usr/lib/gcc/arm-none-eabi/4.9.3/../../../arm-none-eabi/lib/armv7-m/libc.a(lib_a-strncmp.o)
 .bss           0x0000000000000000        0x0 /usr/lib/gcc/arm-none-eabi/4.9.3/../../../arm-none-eabi/lib/armv7-m/libc.a(lib_a-strncmp.o)
 .text.strncmp  0x0000000000000000       0x94 /usr/lib/gcc/arm-none-eabi/4.9.3/../../../arm-none-eabi/lib/armv7-m/libc.a(lib_a-strncmp.o)
 .debug_info    0x0000000000000000       0xf5 /usr/lib/gcc/arm-none-eabi/4.9.3/../../../arm-none-eabi/lib/armv7-m/libc.a(lib_a-strncmp.o)
 .debug_abbrev  0x0000000000000000       0x81 /usr/lib/gcc/arm-none-eabi/4.9.3/../../../arm-none-eabi/lib/armv7-m/libc.a(lib_a-strncmp.o)
 .debug_loc     0x0000000000000000      0x18f /usr/lib/gcc/arm-none-eabi/4.9.3/../../../arm-none-eabi/lib/armv7-m/libc.a(lib_a-strncmp.o)
 .debug_aranges
                0x0000000000000000       0x20 /usr/lib/gcc/arm-none-eabi/4.9.3/../../../arm-none-eabi/lib/armv7-m/libc.a(lib_a-strncmp.o)
 .debug_ranges  0x0000000000000000       0x10 /usr/lib/gcc/arm-none-eabi/4.9.3/../../../arm-none-eabi/lib/armv7-m/libc.a(lib_a-strncmp.o)
 .debug_line    0x0000000000000000      0x14c /usr/lib/gcc/arm-none-eabi/4.9.3/../../../arm-none-eabi/lib/armv7-m/libc.a(lib_a-strncmp.o)
 .debug_str     0x0000000000000000      0x1bd /usr/lib/gcc/arm-none-eabi/4.9.3/../../../arm-none-eabi/lib/armv7-m/libc.a(lib_a-strncmp.o)
 .comment       0x0000000000000000       0x39 /usr/lib/gcc/arm-none-eabi/4.9.3/../../../arm-none-eabi/lib/armv7-m/libc.a(lib_a-strncmp.o)
 .debug_frame   0x0000000000000000       0x54 /usr/lib/gcc/arm-none-eabi/4.9.3/../../../arm-none-eabi/lib/armv7-m/libc.a(lib_a-strncmp.o)
 .ARM.attributes
                0x0000000000000000       0x2d /usr/lib/gcc/arm-none-eabi/4.9.3/../../../arm-none-eabi/lib/armv7-m/libc.a(lib_a-strncmp.o)
 .text          0x0000000000000000        0x0 /usr/lib/gcc/arm-none-eabi/4.9.3/../../../arm-none-eabi/lib/armv7-m/libc.a(lib_a-strncpy.o)
 .data          0x0000000000000000        0x0 /usr/lib/gcc/arm-none-eabi/4.9.3/../../../arm-none-eabi/lib/armv7-m/libc.a(lib_a-strncpy.o)
 .bss           0x0000000000000000        0x0 /usr/lib/gcc/arm-none-eabi/4.9.3/../../../arm-none-eabi/lib/armv7-m/libc.a(lib_a-strncpy.o)
 .text          0x0000000000000000        0x0 /usr/lib/gcc/arm-none-eabi/4.9.3/../../../arm-none-eabi/lib/armv7-m/libc.a(lib_a-strtol.o)
 .data          0x0000000000000000        0x0 /usr/lib/gcc/arm-none-eabi/4.9.3/../../../arm-none-eabi/lib/armv7-m/libc.a(lib_a-strtol.o)
 .bss           0x0000000000000000        0x0 /usr/lib/gcc/arm-none-eabi/4.9.3/../../../arm-none-eabi/lib/armv7-m/libc.a(lib_a-strtol.o)
 .text          0x0000000000000000        0x0 /usr/lib/gcc/arm-none-eabi/4.9.3/../../../arm-none-eabi/lib/armv7-m/libc.a(lib_a-ctype_.o)
 .data          0x0000000000000000        0x0 /usr/lib/gcc/arm-none-eabi/4.9.3/../../../arm-none-eabi/lib/armv7-m/libc.a(lib_a-ctype_.o)
 .bss           0x0000000000000000        0x0 /usr/lib/gcc/arm-none-eabi/4.9.3/../../../arm-none-eabi/lib/armv7-m/libc.a(lib_a-ctype_.o)

Memory Configuration

Name             Origin             Length             Attributes
FLASH            0x0000000000000000 0x000000000001ffa8 xr
FLASH_CCFG       0x000000000001ffa8 0x0000000000000058 xr
SRAM             0x0000000020000000 0x0000000000005000 xrw
GPRAM            0x0000000011000000 0x0000000000002000 xrw
*default*        0x0000000000000000 0xffffffffffffffff

Linker script and memory map

LOAD obj_srf06-cc26xx/fault-handlers.o
LOAD obj_srf06-cc26xx/ccfg.o
LOAD obj_srf06-cc26xx/startup_gcc.o
LOAD cc26xx-data-collection.co
LOAD contiki-srf06-cc26xx.a
LOAD /usr/lib/gcc/arm-none-eabi/4.9.3/../../../arm-none-eabi/lib/armv7-m/libm.a
START GROUP
LOAD /usr/lib/gcc/arm-none-eabi/4.9.3/armv7-m/libgcc.a
LOAD /usr/lib/gcc/arm-none-eabi/4.9.3/../../../arm-none-eabi/lib/armv7-m/libc.a
END GROUP
                0x0000000020005000                _estack = (ORIGIN (SRAM) + LENGTH (SRAM))
                0x0000000000000000                _Min_Heap_Size = 0x0
                0x0000000000000100                _Min_Stack_Size = 0x100

.text           0x0000000000000000     0xd8fc
                0x0000000000000000                _text = .
 *(SORT(.vectors))
 .vectors       0x0000000000000000       0xc8 obj_srf06-cc26xx/startup_gcc.o
                0x0000000000000000                g_pfnVectors
 *(SORT(.text*))
 .text.value    0x00000000000000c8       0xb0 contiki-srf06-cc26xx.a(opt-3001-sensor)
 .text.value    0x0000000000000178       0x9c contiki-srf06-cc26xx.a(hdc-1000-sensor)
 *fill*         0x0000000000000214        0x4 00000000
 .text.value    0x0000000000000218      0x238 contiki-srf06-cc26xx.a(mpu-9250-sensor)
 .text.__ieee754_pow
                0x0000000000000450      0xaa0 /usr/lib/gcc/arm-none-eabi/4.9.3/../../../arm-none-eabi/lib/armv7-m/libm.a(lib_a-e_pow.o)
                0x0000000000000450                __ieee754_pow
 .text.scalbn   0x0000000000000ef0       0xf0 /usr/lib/gcc/arm-none-eabi/4.9.3/../../../arm-none-eabi/lib/armv7-m/libm.a(lib_a-s_scalbn.o)
                0x0000000000000ef0                scalbn
 .text.FaultISR
                0x0000000000000fe0       0x18 obj_srf06-cc26xx/fault-handlers.o
                0x0000000000000fe0                FaultISR
 .text.NmiSRHandler
                0x0000000000000ff8        0x4 obj_srf06-cc26xx/startup_gcc.o
                0x0000000000000ff8                NmiSR
 .text.IntDefaultHandler
                0x0000000000000ffc        0x4 obj_srf06-cc26xx/startup_gcc.o
                0x0000000000000ffc                SSI0IntHandler
                0x0000000000000ffc                SWEvent0IntHandler
                0x0000000000000ffc                uDMAIntHandler
                0x0000000000000ffc                WatchdogIntHandler
                0x0000000000000ffc                RFCHardwareIntHandler
                0x0000000000000ffc                Timer1BIntHandler
                0x0000000000000ffc                I2SIntHandler
                0x0000000000000ffc                Timer2BIntHandler
                0x0000000000000ffc                Timer2AIntHandler
                0x0000000000000ffc                Timer1AIntHandler
                0x0000000000000ffc                AONIntHandler
                0x0000000000000ffc                AUXSWEvent0IntHandler
                0x0000000000000ffc                AUXADCIntHandler
                0x0000000000000ffc                PendSVIntHandler
                0x0000000000000ffc                AUXSWEvent1IntHandler
                0x0000000000000ffc                SVCallIntHandler
                0x0000000000000ffc                MPUFaultIntHandler
                0x0000000000000ffc                SysTickIntHandler
                0x0000000000000ffc                BusFaultIntHandler
                0x0000000000000ffc                AONProgIntHandler
                0x0000000000000ffc                AUXCompAIntHandler
                0x0000000000000ffc                SSI1IntHandler
                0x0000000000000ffc                FlashIntHandler
                0x0000000000000ffc                uDMAErrIntHandler
                0x0000000000000ffc                UsageFaultIntHandler
                0x0000000000000ffc                RFCCmdAckIntHandler
                0x0000000000000ffc                CryptoIntHandler
                0x0000000000000ffc                Timer0AIntHandler
                0x0000000000000ffc                I2CIntHandler
                0x0000000000000ffc                DebugMonIntHandler
                0x0000000000000ffc                Timer0BIntHandler
                0x0000000000000ffc                AUXCombEventIntHandler
                0x0000000000000ffc                Timer3AIntHandler
                0x0000000000000ffc                DynProgIntHandler
                0x0000000000000ffc                Timer3BIntHandler
 .text.ResetISR
                0x0000000000001000       0x5c obj_srf06-cc26xx/startup_gcc.o
                0x0000000000001000                ResetISR
 .text.free_sink_busy_before
                0x000000000000105c       0x1c cc26xx-data-collection.co
 .text.free_sink_busy_after
                0x0000000000001078       0x14 cc26xx-data-collection.co
 .text.init_bmp_reading
                0x000000000000108c       0x10 cc26xx-data-collection.co
 .text.init_opt_reading
                0x000000000000109c       0x10 cc26xx-data-collection.co
 .text.init_tmp_reading
                0x00000000000010ac       0x10 cc26xx-data-collection.co
 .text.init_mpu_reading
                0x00000000000010bc       0x10 cc26xx-data-collection.co
 .text.get_mpu_reading
                0x00000000000010cc      0x108 cc26xx-data-collection.co
 .text.process_thread_cc26xx_data_collection_process
                0x00000000000011d4      0xbf4 cc26xx-data-collection.co
 .text.broadcast_recv
                0x0000000000001dc8      0x224 cc26xx-data-collection.co
 .text.process_thread_sync_data
                0x0000000000001fec      0x188 cc26xx-data-collection.co
 .text.fade     0x0000000000002174       0x64 contiki-srf06-cc26xx.a(contiki-main.o)
 .text.startup.main
                0x00000000000021d8      0x22c contiki-srf06-cc26xx.a(contiki-main.o)
                0x00000000000021d8                main
 .text.process_thread_sensors_process
                0x0000000000002404       0xf8 contiki-srf06-cc26xx.a(sensors.o)
 .text.sensors_changed
                0x00000000000024fc       0x50 contiki-srf06-cc26xx.a(sensors.o)
                0x00000000000024fc                sensors_changed
 .text.leds_init
                0x000000000000254c       0x14 contiki-srf06-cc26xx.a(leds.o)
                0x000000000000254c                leds_init
 .text.leds_on  0x0000000000002560       0x14 contiki-srf06-cc26xx.a(leds.o)
                0x0000000000002560                leds_on
 .text.leds_off
                0x0000000000002574       0x14 contiki-srf06-cc26xx.a(leds.o)
                0x0000000000002574                leds_off
 .text.leds_arch_init
                0x0000000000002588       0x38 contiki-srf06-cc26xx.a(leds-arch.o)
                0x0000000000002588                leds_arch_init
 .text.leds_arch_set
                0x00000000000025c0       0x34 contiki-srf06-cc26xx.a(leds-arch.o)
                0x00000000000025c0                leds_arch_set
 .text.status   0x00000000000025f4       0x14 contiki-srf06-cc26xx.a(bmp-280-sensor.)
 .text.notify_ready
                0x0000000000002608       0x14 contiki-srf06-cc26xx.a(bmp-280-sensor.)
 .text.enable_sensor
                0x000000000000261c       0x2c contiki-srf06-cc26xx.a(bmp-280-sensor.)
 .text.configure
                0x0000000000002648       0x94 contiki-srf06-cc26xx.a(bmp-280-sensor.)
 .text.value    0x00000000000026dc      0x15c contiki-srf06-cc26xx.a(bmp-280-sensor.)
 .text.status   0x0000000000002838       0x14 contiki-srf06-cc26xx.a(tmp-007-sensor.)
 .text.notify_ready
                0x000000000000284c       0x14 contiki-srf06-cc26xx.a(tmp-007-sensor.)
 .text.enable_sensor
                0x0000000000002860       0x2c contiki-srf06-cc26xx.a(tmp-007-sensor.)
 .text.configure
                0x000000000000288c       0x94 contiki-srf06-cc26xx.a(tmp-007-sensor.)
 .text.value    0x0000000000002920       0xec contiki-srf06-cc26xx.a(tmp-007-sensor.)
 .text.status   0x0000000000002a0c        0xc contiki-srf06-cc26xx.a(opt-3001-sensor)
 .text.enable_sensor
                0x0000000000002a18       0x44 contiki-srf06-cc26xx.a(opt-3001-sensor)
 .text.notify_ready
                0x0000000000002a5c       0x54 contiki-srf06-cc26xx.a(opt-3001-sensor)
 .text.configure
                0x0000000000002ab0       0x4c contiki-srf06-cc26xx.a(opt-3001-sensor)
 .text.status   0x0000000000002afc       0x14 contiki-srf06-cc26xx.a(hdc-1000-sensor)
 .text.notify_ready
                0x0000000000002b10       0x60 contiki-srf06-cc26xx.a(hdc-1000-sensor)
 .text.configure
                0x0000000000002b70       0xb8 contiki-srf06-cc26xx.a(hdc-1000-sensor)
 .text.acc_convert
                0x0000000000002c28       0x70 contiki-srf06-cc26xx.a(mpu-9250-sensor)
 .text.status   0x0000000000002c98       0x14 contiki-srf06-cc26xx.a(mpu-9250-sensor)
 .text.sensor_sleep
                0x0000000000002cac       0x38 contiki-srf06-cc26xx.a(mpu-9250-sensor)
 .text.set_bypass
                0x0000000000002ce4       0x5c contiki-srf06-cc26xx.a(mpu-9250-sensor)
 .text.int_status
                0x0000000000002d40       0x28 contiki-srf06-cc26xx.a(mpu-9250-sensor)
 .text.configure
                0x0000000000002d68       0xdc contiki-srf06-cc26xx.a(mpu-9250-sensor)
 .text.notify_ready
                0x0000000000002e44       0x14 contiki-srf06-cc26xx.a(mpu-9250-sensor)
 .text.mag_read
                0x0000000000002e58      0x13c contiki-srf06-cc26xx.a(mpu-9250-sensor)
                0x0000000000002e58                mag_read
 .text.mag_init
                0x0000000000002f94       0xcc contiki-srf06-cc26xx.a(mpu-9250-sensor)
                0x0000000000002f94                mag_init
 .text.initialise
                0x0000000000003060      0x1a8 contiki-srf06-cc26xx.a(mpu-9250-sensor)
 .text.status.part.0
                0x0000000000003208       0x14 contiki-srf06-cc26xx.a(button-sensor.o)
 .text.value_left
                0x000000000000321c       0x24 contiki-srf06-cc26xx.a(button-sensor.o)
 .text.value_right
                0x0000000000003240       0x24 contiki-srf06-cc26xx.a(button-sensor.o)
 .text.status_left
                0x0000000000003264       0x10 contiki-srf06-cc26xx.a(button-sensor.o)
 .text.status_right
                0x0000000000003274       0x10 contiki-srf06-cc26xx.a(button-sensor.o)
 .text.config_buttons
                0x0000000000003284       0x84 contiki-srf06-cc26xx.a(button-sensor.o)
 .text.config_left
                0x0000000000003308        0xc contiki-srf06-cc26xx.a(button-sensor.o)
 .text.config_right
                0x0000000000003314        0xc contiki-srf06-cc26xx.a(button-sensor.o)
 .text.button_press_handler
                0x0000000000003320       0x98 contiki-srf06-cc26xx.a(button-sensor.o)
 .text.value    0x00000000000033b8       0x10 contiki-srf06-cc26xx.a(reed-relay.o)
 .text.status   0x00000000000033c8       0x20 contiki-srf06-cc26xx.a(reed-relay.o)
 .text.configure
                0x00000000000033e8       0x6c contiki-srf06-cc26xx.a(reed-relay.o)
 .text.reed_interrupt_handler
                0x0000000000003454       0x28 contiki-srf06-cc26xx.a(reed-relay.o)
 .text.buzzer_init
                0x000000000000347c        0xc contiki-srf06-cc26xx.a(buzzer.o)
                0x000000000000347c                buzzer_init
 .text.buzzer_state
                0x0000000000003488        0xc contiki-srf06-cc26xx.a(buzzer.o)
                0x0000000000003488                buzzer_state
 .text.buzzer_start
                0x0000000000003494       0xa4 contiki-srf06-cc26xx.a(buzzer.o)
                0x0000000000003494                buzzer_start
 .text.buzzer_stop
                0x0000000000003538       0x74 contiki-srf06-cc26xx.a(buzzer.o)
                0x0000000000003538                buzzer_stop
 .text.power_domains_on
                0x00000000000035ac       0x20 contiki-srf06-cc26xx.a(board.o)
 .text.lpm_wakeup_handler
                0x00000000000035cc        0x4 contiki-srf06-cc26xx.a(board.o)
 .text.shutdown_handler
                0x00000000000035d0       0x68 contiki-srf06-cc26xx.a(board.o)
 .text.board_init
                0x0000000000003638      0x118 contiki-srf06-cc26xx.a(board.o)
                0x0000000000003638                board_init
 .text.i2c_status
                0x0000000000003750       0x34 contiki-srf06-cc26xx.a(board-i2c.o)
 .text.accessible
                0x0000000000003784       0x24 contiki-srf06-cc26xx.a(board-i2c.o)
 .text.board_i2c_wakeup
                0x00000000000037a8       0x5c contiki-srf06-cc26xx.a(board-i2c.o)
                0x00000000000037a8                board_i2c_wakeup
 .text.board_i2c_shutdown
                0x0000000000003804       0xa4 contiki-srf06-cc26xx.a(board-i2c.o)
                0x0000000000003804                board_i2c_shutdown
 .text.board_i2c_write
                0x00000000000038a8      0x138 contiki-srf06-cc26xx.a(board-i2c.o)
                0x00000000000038a8                board_i2c_write
 .text.board_i2c_write_single
                0x00000000000039e0       0x70 contiki-srf06-cc26xx.a(board-i2c.o)
                0x00000000000039e0                board_i2c_write_single
 .text.board_i2c_read
                0x0000000000003a50      0x118 contiki-srf06-cc26xx.a(board-i2c.o)
                0x0000000000003a50                board_i2c_read
 .text.board_i2c_write_read
                0x0000000000003b68      0x1cc contiki-srf06-cc26xx.a(board-i2c.o)
                0x0000000000003b68                board_i2c_write_read
 .text.board_i2c_select
                0x0000000000003d34       0xdc contiki-srf06-cc26xx.a(board-i2c.o)
                0x0000000000003d34                board_i2c_select
 .text.find_contiguous_pages
                0x0000000000003e10       0xac contiki-srf06-cc26xx.a(cfs-coffee.o)
 .text.file_end
                0x0000000000003ebc       0x64 contiki-srf06-cc26xx.a(cfs-coffee.o)
 .text.read_log_page
                0x0000000000003f20      0x170 contiki-srf06-cc26xx.a(cfs-coffee.o)
 .text.load_file.isra.1
                0x0000000000004090       0x54 contiki-srf06-cc26xx.a(cfs-coffee.o)
 .text.find_file
                0x00000000000040e4       0xcc contiki-srf06-cc26xx.a(cfs-coffee.o)
 .text.remove_by_page.isra.3
                0x00000000000041b0       0xc0 contiki-srf06-cc26xx.a(cfs-coffee.o)
 .text.cfs_close.part.6
                0x0000000000004270       0x20 contiki-srf06-cc26xx.a(cfs-coffee.o)
 .text.reserve  0x0000000000004290      0x2f4 contiki-srf06-cc26xx.a(cfs-coffee.o)
 .text.cfs_open
                0x0000000000004584       0xac contiki-srf06-cc26xx.a(cfs-coffee.o)
                0x0000000000004584                cfs_open
 .text.cfs_close
                0x0000000000004630       0x1c contiki-srf06-cc26xx.a(cfs-coffee.o)
                0x0000000000004630                cfs_close
 .text.cfs_seek
                0x000000000000464c       0x6c contiki-srf06-cc26xx.a(cfs-coffee.o)
                0x000000000000464c                cfs_seek
 .text.cfs_remove
                0x00000000000046b8       0x20 contiki-srf06-cc26xx.a(cfs-coffee.o)
                0x00000000000046b8                cfs_remove
 .text.cfs_read
                0x00000000000046d8      0x104 contiki-srf06-cc26xx.a(cfs-coffee.o)
                0x00000000000046d8                cfs_read
 .text.merge_log
                0x00000000000047dc      0x1b0 contiki-srf06-cc26xx.a(cfs-coffee.o)
 .text.cfs_write
                0x000000000000498c      0x40c contiki-srf06-cc26xx.a(cfs-coffee.o)
                0x000000000000498c                cfs_write
 .text.cfs_coffee_reserve
                0x0000000000004d98       0x1c contiki-srf06-cc26xx.a(cfs-coffee.o)
                0x0000000000004d98                cfs_coffee_reserve
 .text.xmem_pread
                0x0000000000004db4       0x48 contiki-srf06-cc26xx.a(xmem.o)
                0x0000000000004db4                xmem_pread
 .text.xmem_pwrite
                0x0000000000004dfc       0x7c contiki-srf06-cc26xx.a(xmem.o)
                0x0000000000004dfc                xmem_pwrite
 .text.xmem_erase
                0x0000000000004e78       0x40 contiki-srf06-cc26xx.a(xmem.o)
                0x0000000000004e78                xmem_erase
 .text.power_domain_on
                0x0000000000004eb8       0x20 contiki-srf06-cc26xx.a(clock.o)
 .text.clock_init
                0x0000000000004ed8       0x98 contiki-srf06-cc26xx.a(clock.o)
                0x0000000000004ed8                clock_init
 .text.clock_time
                0x0000000000004f70       0x34 contiki-srf06-cc26xx.a(clock.o)
                0x0000000000004f70                clock_time
 .text.clock_update
                0x0000000000004fa4       0x3c contiki-srf06-cc26xx.a(clock.o)
                0x0000000000004fa4                clock_update
 .text.clock_seconds
                0x0000000000004fe0       0x18 contiki-srf06-cc26xx.a(clock.o)
                0x0000000000004fe0                clock_seconds
 .text.rtimer_arch_init
                0x0000000000004ff8        0x4 contiki-srf06-cc26xx.a(rtimer-arch.o)
                0x0000000000004ff8                rtimer_arch_init
 .text.rtimer_arch_schedule
                0x0000000000004ffc        0x8 contiki-srf06-cc26xx.a(rtimer-arch.o)
                0x0000000000004ffc                rtimer_arch_schedule
 .text.rtimer_arch_now
                0x0000000000005004        0x4 contiki-srf06-cc26xx.a(rtimer-arch.o)
                0x0000000000005004                rtimer_arch_now
 .text.soc_rtc_init
                0x0000000000005008       0xa0 contiki-srf06-cc26xx.a(soc-rtc.o)
                0x0000000000005008                soc_rtc_init
 .text.soc_rtc_schedule_one_shot
                0x00000000000050a8       0x70 contiki-srf06-cc26xx.a(soc-rtc.o)
                0x00000000000050a8                soc_rtc_schedule_one_shot
 .text.soc_rtc_last_isr_time
                0x0000000000005118        0xc contiki-srf06-cc26xx.a(soc-rtc.o)
                0x0000000000005118                soc_rtc_last_isr_time
 .text.AONRTCIntHandler
                0x0000000000005124       0x88 contiki-srf06-cc26xx.a(soc-rtc.o)
                0x0000000000005124                AONRTCIntHandler
 .text.lock_config
                0x00000000000051ac       0x18 contiki-srf06-cc26xx.a(contiki-watchdo)
 .text.unlock_config
                0x00000000000051c4       0x2c contiki-srf06-cc26xx.a(contiki-watchdo)
 .text.watchdog_init
                0x00000000000051f0       0x1c contiki-srf06-cc26xx.a(contiki-watchdo)
                0x00000000000051f0                watchdog_init
 .text.watchdog_start
                0x000000000000520c       0x30 contiki-srf06-cc26xx.a(contiki-watchdo)
                0x000000000000520c                watchdog_start
 .text.watchdog_periodic
                0x000000000000523c       0x1c contiki-srf06-cc26xx.a(contiki-watchdo)
                0x000000000000523c                watchdog_periodic
 .text.watchdog_reboot
                0x0000000000005258        0x8 contiki-srf06-cc26xx.a(contiki-watchdo)
                0x0000000000005258                watchdog_reboot
 .text.putchar  0x0000000000005260       0x10 contiki-srf06-cc26xx.a(putchar.o)
                0x0000000000005260                putchar
 .text.puts     0x0000000000005270       0x30 contiki-srf06-cc26xx.a(putchar.o)
                0x0000000000005270                puts
 .text.dbg_send_bytes
                0x00000000000052a0       0x40 contiki-srf06-cc26xx.a(putchar.o)
                0x00000000000052a0                dbg_send_bytes
 .text.ieee_addr_cpy_to
                0x00000000000052e0       0x40 contiki-srf06-cc26xx.a(ieee-addr.o)
                0x00000000000052e0                ieee_addr_cpy_to
 .text.configure
                0x0000000000005320       0x34 contiki-srf06-cc26xx.a(batmon-sensor.o)
 .text.status   0x0000000000005354       0x14 contiki-srf06-cc26xx.a(batmon-sensor.o)
 .text.value    0x0000000000005368       0x24 contiki-srf06-cc26xx.a(batmon-sensor.o)
 .text.power_and_clock
                0x000000000000538c       0x40 contiki-srf06-cc26xx.a(cc26xx-uart.o)
 .text.enable   0x00000000000053cc       0xf4 contiki-srf06-cc26xx.a(cc26xx-uart.o)
 .text.accessible
                0x00000000000054c0       0x24 contiki-srf06-cc26xx.a(cc26xx-uart.o)
 .text.lpm_drop_handler
                0x00000000000054e4       0xcc contiki-srf06-cc26xx.a(cc26xx-uart.o)
 .text.cc26xx_uart_init
                0x00000000000055b0       0x28 contiki-srf06-cc26xx.a(cc26xx-uart.o)
                0x00000000000055b0                cc26xx_uart_init
 .text.cc26xx_uart_write_byte
                0x00000000000055d8       0x28 contiki-srf06-cc26xx.a(cc26xx-uart.o)
                0x00000000000055d8                cc26xx_uart_write_byte
 .text.cc26xx_uart_set_input
                0x0000000000005600       0x64 contiki-srf06-cc26xx.a(cc26xx-uart.o)
                0x0000000000005600                cc26xx_uart_set_input
 .text.cc26xx_uart_busy
                0x0000000000005664       0x18 contiki-srf06-cc26xx.a(cc26xx-uart.o)
                0x0000000000005664                cc26xx_uart_busy
 .text.UART0IntHandler
                0x000000000000567c       0x54 contiki-srf06-cc26xx.a(cc26xx-uart.o)
                0x000000000000567c                UART0IntHandler
 .text.lpm_sleep
                0x00000000000056d0       0x14 contiki-srf06-cc26xx.a(lpm.o)
                0x00000000000056d0                lpm_sleep
 .text.lpm_drop
                0x00000000000056e4      0x25c contiki-srf06-cc26xx.a(lpm.o)
                0x00000000000056e4                lpm_drop
 .text.lpm_register_module
                0x0000000000005940        0xc contiki-srf06-cc26xx.a(lpm.o)
                0x0000000000005940                lpm_register_module
 .text.lpm_unregister_module
                0x000000000000594c        0xc contiki-srf06-cc26xx.a(lpm.o)
                0x000000000000594c                lpm_unregister_module
 .text.lpm_init
                0x0000000000005958       0x20 contiki-srf06-cc26xx.a(lpm.o)
                0x0000000000005958                lpm_init
 .text.lpm_pin_set_default_state
                0x0000000000005978       0x2c contiki-srf06-cc26xx.a(lpm.o)
                0x0000000000005978                lpm_pin_set_default_state
 .text.gpio_interrupt_register_handler
                0x00000000000059a4       0x2c contiki-srf06-cc26xx.a(gpio-interrupt.)
                0x00000000000059a4                gpio_interrupt_register_handler
 .text.gpio_interrupt_init
                0x00000000000059d0       0x24 contiki-srf06-cc26xx.a(gpio-interrupt.)
                0x00000000000059d0                gpio_interrupt_init
 .text.GPIOIntHandler
                0x00000000000059f4       0x30 contiki-srf06-cc26xx.a(gpio-interrupt.)
                0x00000000000059f4                GPIOIntHandler
 .text.oscillators_select_lf_xosc
                0x0000000000005a24       0x50 contiki-srf06-cc26xx.a(oscillators.o)
                0x0000000000005a24                oscillators_select_lf_xosc
 .text.oscillators_request_hf_xosc
                0x0000000000005a74       0x30 contiki-srf06-cc26xx.a(oscillators.o)
                0x0000000000005a74                oscillators_request_hf_xosc
 .text.oscillators_switch_to_hf_xosc
                0x0000000000005aa4       0x34 contiki-srf06-cc26xx.a(oscillators.o)
                0x0000000000005aa4                oscillators_switch_to_hf_xosc
 .text.oscillators_switch_to_hf_rc
                0x0000000000005ad8       0x38 contiki-srf06-cc26xx.a(oscillators.o)
                0x0000000000005ad8                oscillators_switch_to_hf_rc
 .text.request  0x0000000000005b10       0x20 contiki-srf06-cc26xx.a(ieee-mode.o)
 .text.rx_on    0x0000000000005b30       0x60 contiki-srf06-cc26xx.a(ieee-mode.o)
 .text.prepare  0x0000000000005b90       0x1c contiki-srf06-cc26xx.a(ieee-mode.o)
 .text.rf_radio_setup
                0x0000000000005bac       0x64 contiki-srf06-cc26xx.a(ieee-mode.o)
 .text.soft_on  0x0000000000005c10       0x18 contiki-srf06-cc26xx.a(ieee-mode.o)
 .text.pending_packet
                0x0000000000005c28       0x48 contiki-srf06-cc26xx.a(ieee-mode.o)
 .text.soft_off
                0x0000000000005c70       0x44 contiki-srf06-cc26xx.a(ieee-mode.o)
 .text.get_object
                0x0000000000005cb4       0x4c contiki-srf06-cc26xx.a(ieee-mode.o)
 .text.transmitting
                0x0000000000005d00       0x4c contiki-srf06-cc26xx.a(ieee-mode.o)
 .text.rx_off   0x0000000000005d4c       0x6c contiki-srf06-cc26xx.a(ieee-mode.o)
 .text.set_object
                0x0000000000005db8       0x60 contiki-srf06-cc26xx.a(ieee-mode.o)
 .text.get_cca_info
                0x0000000000005e18       0x50 contiki-srf06-cc26xx.a(ieee-mode.o)
 .text.check_rat_overflow
                0x0000000000005e68       0x80 contiki-srf06-cc26xx.a(ieee-mode.o)
 .text.receiving_packet
                0x0000000000005ee8       0x34 contiki-srf06-cc26xx.a(ieee-mode.o)
 .text.off      0x0000000000005f1c       0x6c contiki-srf06-cc26xx.a(ieee-mode.o)
 .text.on       0x0000000000005f88       0xac contiki-srf06-cc26xx.a(ieee-mode.o)
 .text.set_value
                0x0000000000006034      0x168 contiki-srf06-cc26xx.a(ieee-mode.o)
 .text.get_value
                0x000000000000619c      0x188 contiki-srf06-cc26xx.a(ieee-mode.o)
 .text.transmit
                0x0000000000006324       0xec contiki-srf06-cc26xx.a(ieee-mode.o)
 .text.send     0x0000000000006410       0x24 contiki-srf06-cc26xx.a(ieee-mode.o)
 .text.channel_clear
                0x0000000000006434       0x68 contiki-srf06-cc26xx.a(ieee-mode.o)
 .text.read_frame
                0x000000000000649c      0x1a0 contiki-srf06-cc26xx.a(ieee-mode.o)
 .text.handle_rat_overflow
                0x000000000000663c       0x60 contiki-srf06-cc26xx.a(ieee-mode.o)
 .text.init     0x000000000000669c      0x118 contiki-srf06-cc26xx.a(ieee-mode.o)
 .text.random_rand
                0x00000000000067b4        0xc contiki-srf06-cc26xx.a(random.o)
                0x00000000000067b4                random_rand
 .text.random_init
                0x00000000000067c0        0x4 contiki-srf06-cc26xx.a(random.o)
                0x00000000000067c0                random_init
 .text.power_up
                0x00000000000067c4       0x40 contiki-srf06-cc26xx.a(soc-trng.o)
 .text.request  0x0000000000006804       0x14 contiki-srf06-cc26xx.a(soc-trng.o)
 .text.process_thread_soc_trng_process
                0x0000000000006818       0x94 contiki-srf06-cc26xx.a(soc-trng.o)
 .text.accessible
                0x00000000000068ac       0x24 contiki-srf06-cc26xx.a(soc-trng.o)
 .text.soc_trng_rand_synchronous
                0x00000000000068d0       0xc4 contiki-srf06-cc26xx.a(soc-trng.o)
                0x00000000000068d0                soc_trng_rand_synchronous
 .text.TRNGIntHandler
                0x0000000000006994       0x50 contiki-srf06-cc26xx.a(soc-trng.o)
                0x0000000000006994                TRNGIntHandler
 .text.soc_trng_init
                0x00000000000069e4       0x28 contiki-srf06-cc26xx.a(soc-trng.o)
                0x00000000000069e4                soc_trng_init
 .text.write_str
                0x0000000000006a0c       0x14 contiki-srf06-cc26xx.a(dbg-printf.o)
 .text.printf   0x0000000000006a20       0x24 contiki-srf06-cc26xx.a(dbg-printf.o)
                0x0000000000006a20                printf
 .text.fill_space
                0x0000000000006a44       0x3c contiki-srf06-cc26xx.a(strformat.o)
 .text.format_str_v
                0x0000000000006a80      0x95c contiki-srf06-cc26xx.a(strformat.o)
                0x0000000000006a80                format_str_v
 .text.autostart_start
                0x00000000000073dc       0x18 contiki-srf06-cc26xx.a(autostart.o)
                0x00000000000073dc                autostart_start
 .text.energest_init
                0x00000000000073f4        0x4 contiki-srf06-cc26xx.a(energest.o)
                0x00000000000073f4                energest_init
 .text.process_thread_ctimer_process
                0x00000000000073f8       0x94 contiki-srf06-cc26xx.a(ctimer.o)
 .text.ctimer_init
                0x000000000000748c       0x28 contiki-srf06-cc26xx.a(ctimer.o)
                0x000000000000748c                ctimer_init
 .text.ctimer_set_with_process
                0x00000000000074b4       0x4c contiki-srf06-cc26xx.a(ctimer.o)
                0x00000000000074b4                ctimer_set_with_process
 .text.ctimer_set
                0x0000000000007500       0x18 contiki-srf06-cc26xx.a(ctimer.o)
                0x0000000000007500                ctimer_set
 .text.ctimer_stop
                0x0000000000007518       0x34 contiki-srf06-cc26xx.a(ctimer.o)
                0x0000000000007518                ctimer_stop
 .text.update_time
                0x000000000000754c       0x44 contiki-srf06-cc26xx.a(etimer.o)
 .text.process_thread_etimer_process
                0x0000000000007590       0xc8 contiki-srf06-cc26xx.a(etimer.o)
 .text.add_timer
                0x0000000000007658       0x54 contiki-srf06-cc26xx.a(etimer.o)
 .text.etimer_request_poll
                0x00000000000076ac        0xc contiki-srf06-cc26xx.a(etimer.o)
                0x00000000000076ac                etimer_request_poll
 .text.etimer_set
                0x00000000000076b8       0x14 contiki-srf06-cc26xx.a(etimer.o)
                0x00000000000076b8                etimer_set
 .text.etimer_reset
                0x00000000000076cc       0x14 contiki-srf06-cc26xx.a(etimer.o)
                0x00000000000076cc                etimer_reset
 .text.etimer_expired
                0x00000000000076e0        0xc contiki-srf06-cc26xx.a(etimer.o)
                0x00000000000076e0                etimer_expired
 .text.etimer_pending
                0x00000000000076ec       0x10 contiki-srf06-cc26xx.a(etimer.o)
                0x00000000000076ec                etimer_pending
 .text.etimer_next_expiration_time
                0x00000000000076fc       0x14 contiki-srf06-cc26xx.a(etimer.o)
                0x00000000000076fc                etimer_next_expiration_time
 .text.etimer_stop
                0x0000000000007710       0x4c contiki-srf06-cc26xx.a(etimer.o)
                0x0000000000007710                etimer_stop
 .text.exit_process
                0x000000000000775c       0xb0 contiki-srf06-cc26xx.a(process.o)
 .text.call_process.part.0
                0x000000000000780c       0x38 contiki-srf06-cc26xx.a(process.o)
 .text.do_poll  0x0000000000007844       0x3c contiki-srf06-cc26xx.a(process.o)
 .text.process_alloc_event
                0x0000000000007880       0x10 contiki-srf06-cc26xx.a(process.o)
                0x0000000000007880                process_alloc_event
 .text.process_init
                0x0000000000007890       0x34 contiki-srf06-cc26xx.a(process.o)
                0x0000000000007890                process_init
 .text.process_run
                0x00000000000078c4       0xac contiki-srf06-cc26xx.a(process.o)
                0x00000000000078c4                process_run
 .text.process_nevents
                0x0000000000007970       0x14 contiki-srf06-cc26xx.a(process.o)
                0x0000000000007970                process_nevents
 .text.process_post
                0x0000000000007984       0x40 contiki-srf06-cc26xx.a(process.o)
                0x0000000000007984                process_post
 .text.process_post_synch
                0x00000000000079c4       0x18 contiki-srf06-cc26xx.a(process.o)
                0x00000000000079c4                process_post_synch
 .text.process_start
                0x00000000000079dc       0x40 contiki-srf06-cc26xx.a(process.o)
                0x00000000000079dc                process_start
 .text.process_poll
                0x0000000000007a1c       0x18 contiki-srf06-cc26xx.a(process.o)
                0x0000000000007a1c                process_poll
 .text.rtimer_init
                0x0000000000007a34        0x4 contiki-srf06-cc26xx.a(rtimer.o)
                0x0000000000007a34                rtimer_init
 .text.rtimer_run_next
                0x0000000000007a38       0x28 contiki-srf06-cc26xx.a(rtimer.o)
                0x0000000000007a38                rtimer_run_next
 .text.timer_set
                0x0000000000007a60       0x10 contiki-srf06-cc26xx.a(timer.o)
                0x0000000000007a60                timer_set
 .text.timer_reset
                0x0000000000007a70        0xc contiki-srf06-cc26xx.a(timer.o)
                0x0000000000007a70                timer_reset
 .text.timer_expired
                0x0000000000007a7c       0x1c contiki-srf06-cc26xx.a(timer.o)
                0x0000000000007a7c                timer_expired
 .text.process_thread_serial_line_process
                0x0000000000007a98       0xac contiki-srf06-cc26xx.a(serial-line.o)
 .text.serial_line_input_byte
                0x0000000000007b44       0x54 contiki-srf06-cc26xx.a(serial-line.o)
                0x0000000000007b44                serial_line_input_byte
 .text.serial_line_init
                0x0000000000007b98       0x24 contiki-srf06-cc26xx.a(serial-line.o)
                0x0000000000007b98                serial_line_init
 .text.list_init
                0x0000000000007bbc        0x8 contiki-srf06-cc26xx.a(list.o)
                0x0000000000007bbc                list_init
 .text.list_head
                0x0000000000007bc4        0x4 contiki-srf06-cc26xx.a(list.o)
                0x0000000000007bc4                list_head
 .text.list_add
                0x0000000000007bc8       0x48 contiki-srf06-cc26xx.a(list.o)
                0x0000000000007bc8                list_add
 .text.list_push
                0x0000000000007c10       0x40 contiki-srf06-cc26xx.a(list.o)
                0x0000000000007c10                list_push
 .text.list_remove
                0x0000000000007c50       0x2c contiki-srf06-cc26xx.a(list.o)
                0x0000000000007c50                list_remove
 .text.list_length
                0x0000000000007c7c       0x14 contiki-srf06-cc26xx.a(list.o)
                0x0000000000007c7c                list_length
 .text.list_item_next
                0x0000000000007c90        0x8 contiki-srf06-cc26xx.a(list.o)
                0x0000000000007c90                list_item_next
 .text.ringbuf_init
                0x0000000000007c98       0x10 contiki-srf06-cc26xx.a(ringbuf.o)
                0x0000000000007c98                ringbuf_init
 .text.ringbuf_put
                0x0000000000007ca8       0x30 contiki-srf06-cc26xx.a(ringbuf.o)
                0x0000000000007ca8                ringbuf_put
 .text.ringbuf_get
                0x0000000000007cd8       0x28 contiki-srf06-cc26xx.a(ringbuf.o)
                0x0000000000007cd8                ringbuf_get
 .text.sent_by_abc
                0x0000000000007d00        0xc contiki-srf06-cc26xx.a(broadcast.o)
 .text.recv_from_abc
                0x0000000000007d0c       0x24 contiki-srf06-cc26xx.a(broadcast.o)
 .text.broadcast_open
                0x0000000000007d30       0x24 contiki-srf06-cc26xx.a(broadcast.o)
                0x0000000000007d30                broadcast_open
 .text.broadcast_close
                0x0000000000007d54        0x4 contiki-srf06-cc26xx.a(broadcast.o)
                0x0000000000007d54                broadcast_close
 .text.broadcast_send
                0x0000000000007d58       0x1c contiki-srf06-cc26xx.a(broadcast.o)
                0x0000000000007d58                broadcast_send
 .text.channel_init
                0x0000000000007d74        0xc contiki-srf06-cc26xx.a(channel.o)
                0x0000000000007d74                channel_init
 .text.channel_open
                0x0000000000007d80       0x10 contiki-srf06-cc26xx.a(channel.o)
                0x0000000000007d80                channel_open
 .text.channel_close
                0x0000000000007d90        0xc contiki-srf06-cc26xx.a(channel.o)
                0x0000000000007d90                channel_close
 .text.channel_lookup
                0x0000000000007d9c       0x30 contiki-srf06-cc26xx.a(channel.o)
                0x0000000000007d9c                channel_lookup
 .text.channel_set_attributes
                0x0000000000007dcc       0x18 contiki-srf06-cc26xx.a(channel.o)
                0x0000000000007dcc                channel_set_attributes
 .text.packet_sent
                0x0000000000007de4       0x38 contiki-srf06-cc26xx.a(rime.o)
 .text.input    0x0000000000007e1c       0x38 contiki-srf06-cc26xx.a(rime.o)
 .text.init     0x0000000000007e54       0x28 contiki-srf06-cc26xx.a(rime.o)
 .text.rime_output
                0x0000000000007e7c       0x24 contiki-srf06-cc26xx.a(rime.o)
                0x0000000000007e7c                rime_output
 .text.NOROM_PowerCtrlSourceSet
                0x0000000000007ea0       0x30 contiki-srf06-cc26xx.a(pwr_ctrl.o)
                0x0000000000007ea0                NOROM_PowerCtrlSourceSet
 .text.TrimAfterColdResetWakeupFromShutDown
                0x0000000000007ed0       0xe4 contiki-srf06-cc26xx.a(setup.o)
 .text.NOROM_SetupTrimDevice
                0x0000000000007fb4       0xa4 contiki-srf06-cc26xx.a(setup.o)
                0x0000000000007fb4                NOROM_SetupTrimDevice
 .text.NOROM_AONRTCCurrentCompareValueGet
                0x0000000000008058       0x24 contiki-srf06-cc26xx.a(aon_rtc.o)
                0x0000000000008058                NOROM_AONRTCCurrentCompareValueGet
 .text.NOROM_OSCClockSourceSet
                0x000000000000807c       0x50 contiki-srf06-cc26xx.a(osc.o)
                0x000000000000807c                NOROM_OSCClockSourceSet
 .text.NOROM_OSCClockSourceGet
                0x00000000000080cc       0x24 contiki-srf06-cc26xx.a(osc.o)
                0x00000000000080cc                NOROM_OSCClockSourceGet
 .text.NOROM_AONBatMonTemperatureGetDegC
                0x00000000000080f0       0x30 contiki-srf06-cc26xx.a(aon_batmon.o)
                0x00000000000080f0                NOROM_AONBatMonTemperatureGetDegC
 .text.NOROM_SysCtrlSetRechargeBeforePowerDown
                0x0000000000008120      0x274 contiki-srf06-cc26xx.a(sys_ctrl.o)
                0x0000000000008120                NOROM_SysCtrlSetRechargeBeforePowerDown
 .text.NOROM_SysCtrlAdjustRechargeAfterPowerDown
                0x0000000000008394       0x64 contiki-srf06-cc26xx.a(sys_ctrl.o)
                0x0000000000008394                NOROM_SysCtrlAdjustRechargeAfterPowerDown
 .text.NOROM_SysCtrl_DCDC_VoltageConditionalControl
                0x00000000000083f8       0x7c contiki-srf06-cc26xx.a(sys_ctrl.o)
                0x00000000000083f8                NOROM_SysCtrl_DCDC_VoltageConditionalControl
 .text.SafeHapiVoid
                0x0000000000008474       0x2c contiki-srf06-cc26xx.a(adi.o)
                0x0000000000008474                SafeHapiVoid
 .text.NOROM_CPUcpsid
                0x00000000000084a0        0x8 contiki-srf06-cc26xx.a(cpu.o)
                0x00000000000084a0                NOROM_CPUcpsid
 .text.NOROM_CPUcpsie
                0x00000000000084a8        0x8 contiki-srf06-cc26xx.a(cpu.o)
                0x00000000000084a8                NOROM_CPUcpsie
 .text.NOROM_CPUdelay
                0x00000000000084b0        0x8 contiki-srf06-cc26xx.a(cpu.o)
                0x00000000000084b0                NOROM_CPUdelay
 .text.NOROM_DDI32RegWrite
                0x00000000000084b8       0x34 contiki-srf06-cc26xx.a(ddi.o)
                0x00000000000084b8                NOROM_DDI32RegWrite
 .text.NOROM_DDI16BitfieldWrite
                0x00000000000084ec       0x4c contiki-srf06-cc26xx.a(ddi.o)
                0x00000000000084ec                NOROM_DDI16BitfieldWrite
 .text.NOROM_DDI16BitfieldRead
                0x0000000000008538       0x48 contiki-srf06-cc26xx.a(ddi.o)
                0x0000000000008538                NOROM_DDI16BitfieldRead
 .text.NOROM_ChipInfo_GetSupportedProtocol_BV
                0x0000000000008580       0x10 contiki-srf06-cc26xx.a(chipinfo.o)
                0x0000000000008580                NOROM_ChipInfo_GetSupportedProtocol_BV
 .text.NOROM_ChipInfo_GetChipFamily
                0x0000000000008590       0x50 contiki-srf06-cc26xx.a(chipinfo.o)
                0x0000000000008590                NOROM_ChipInfo_GetChipFamily
 .text.NOROM_ChipInfo_GetChipType
                0x00000000000085e0       0x5c contiki-srf06-cc26xx.a(chipinfo.o)
                0x00000000000085e0                NOROM_ChipInfo_GetChipType
 .text.NOROM_ChipInfo_GetHwRevision
                0x000000000000863c       0x70 contiki-srf06-cc26xx.a(chipinfo.o)
                0x000000000000863c                NOROM_ChipInfo_GetHwRevision
 .text.NOROM_ThisCodeIsBuiltForCC26xxHwRev22AndLater_HaltIfViolated
                0x00000000000086ac       0x14 contiki-srf06-cc26xx.a(chipinfo.o)
                0x00000000000086ac                NOROM_ThisCodeIsBuiltForCC26xxHwRev22AndLater_HaltIfViolated
 .text.NOROM_TRNGConfigure
                0x00000000000086c0       0x38 contiki-srf06-cc26xx.a(trng.o)
                0x00000000000086c0                NOROM_TRNGConfigure
 .text.queuebuf_init
                0x00000000000086f8       0x1c contiki-srf06-cc26xx.a(queuebuf.o)
                0x00000000000086f8                queuebuf_init
 .text.queuebuf_new_from_packetbuf
                0x0000000000008714       0x48 contiki-srf06-cc26xx.a(queuebuf.o)
                0x0000000000008714                queuebuf_new_from_packetbuf
 .text.queuebuf_update_attr_from_packetbuf
                0x000000000000875c        0xc contiki-srf06-cc26xx.a(queuebuf.o)
                0x000000000000875c                queuebuf_update_attr_from_packetbuf
 .text.queuebuf_free
                0x0000000000008768       0x2c contiki-srf06-cc26xx.a(queuebuf.o)
                0x0000000000008768                queuebuf_free
 .text.queuebuf_to_packetbuf
                0x0000000000008794       0x30 contiki-srf06-cc26xx.a(queuebuf.o)
                0x0000000000008794                queuebuf_to_packetbuf
 .text.queuebuf_attr
                0x00000000000087c4        0xc contiki-srf06-cc26xx.a(queuebuf.o)
                0x00000000000087c4                queuebuf_attr
 .text.packetbuf_compact
                0x00000000000087d0       0x4c contiki-srf06-cc26xx.a(packetbuf.o)
                0x00000000000087d0                packetbuf_compact
 .text.packetbuf_copyto
                0x000000000000881c       0x50 contiki-srf06-cc26xx.a(packetbuf.o)
                0x000000000000881c                packetbuf_copyto
 .text.packetbuf_hdralloc
                0x000000000000886c       0x58 contiki-srf06-cc26xx.a(packetbuf.o)
                0x000000000000886c                packetbuf_hdralloc
 .text.packetbuf_hdrreduce
                0x00000000000088c4       0x2c contiki-srf06-cc26xx.a(packetbuf.o)
                0x00000000000088c4                packetbuf_hdrreduce
 .text.packetbuf_set_datalen
                0x00000000000088f0        0xc contiki-srf06-cc26xx.a(packetbuf.o)
                0x00000000000088f0                packetbuf_set_datalen
 .text.packetbuf_dataptr
                0x00000000000088fc       0x20 contiki-srf06-cc26xx.a(packetbuf.o)
                0x00000000000088fc                packetbuf_dataptr
 .text.packetbuf_hdrptr
                0x000000000000891c        0x8 contiki-srf06-cc26xx.a(packetbuf.o)
                0x000000000000891c                packetbuf_hdrptr
 .text.packetbuf_datalen
                0x0000000000008924        0xc contiki-srf06-cc26xx.a(packetbuf.o)
                0x0000000000008924                packetbuf_datalen
 .text.packetbuf_totlen
                0x0000000000008930       0x24 contiki-srf06-cc26xx.a(packetbuf.o)
                0x0000000000008930                packetbuf_totlen
 .text.packetbuf_attr_clear
                0x0000000000008954       0x30 contiki-srf06-cc26xx.a(packetbuf.o)
                0x0000000000008954                packetbuf_attr_clear
 .text.packetbuf_clear
                0x0000000000008984       0x20 contiki-srf06-cc26xx.a(packetbuf.o)
                0x0000000000008984                packetbuf_clear
 .text.packetbuf_copyfrom
                0x00000000000089a4       0x40 contiki-srf06-cc26xx.a(packetbuf.o)
                0x00000000000089a4                packetbuf_copyfrom
 .text.packetbuf_attr_copyto
                0x00000000000089e4       0x3c contiki-srf06-cc26xx.a(packetbuf.o)
                0x00000000000089e4                packetbuf_attr_copyto
 .text.packetbuf_attr_copyfrom
                0x0000000000008a20       0x3c contiki-srf06-cc26xx.a(packetbuf.o)
                0x0000000000008a20                packetbuf_attr_copyfrom
 .text.packetbuf_set_attr
                0x0000000000008a5c       0x10 contiki-srf06-cc26xx.a(packetbuf.o)
                0x0000000000008a5c                packetbuf_set_attr
 .text.packetbuf_attr
                0x0000000000008a6c        0xc contiki-srf06-cc26xx.a(packetbuf.o)
                0x0000000000008a6c                packetbuf_attr
 .text.packetbuf_set_addr
                0x0000000000008a78       0x18 contiki-srf06-cc26xx.a(packetbuf.o)
                0x0000000000008a78                packetbuf_set_addr
 .text.packetbuf_addr
                0x0000000000008a90       0x10 contiki-srf06-cc26xx.a(packetbuf.o)
                0x0000000000008a90                packetbuf_addr
 .text.packetbuf_holds_broadcast
                0x0000000000008aa0       0x10 contiki-srf06-cc26xx.a(packetbuf.o)
                0x0000000000008aa0                packetbuf_holds_broadcast
 .text.netstack_init
                0x0000000000008ab0       0x38 contiki-srf06-cc26xx.a(netstack.o)
                0x0000000000008ab0                netstack_init
 .text.linkaddr_copy
                0x0000000000008ae8        0x8 contiki-srf06-cc26xx.a(linkaddr.o)
                0x0000000000008ae8                linkaddr_copy
 .text.linkaddr_cmp
                0x0000000000008af0       0x10 contiki-srf06-cc26xx.a(linkaddr.o)
                0x0000000000008af0                linkaddr_cmp
 .text.input_packet
                0x0000000000008b00        0xc contiki-srf06-cc26xx.a(csma.o)
 .text.on       0x0000000000008b0c        0xc contiki-srf06-cc26xx.a(csma.o)
 .text.off      0x0000000000008b18        0xc contiki-srf06-cc26xx.a(csma.o)
 .text.channel_check_interval
                0x0000000000008b24       0x10 contiki-srf06-cc26xx.a(csma.o)
 .text.transmit_packet_list
                0x0000000000008b34       0x34 contiki-srf06-cc26xx.a(csma.o)
 .text.schedule_transmission
                0x0000000000008b68       0x58 contiki-srf06-cc26xx.a(csma.o)
 .text.send_packet
                0x0000000000008bc0      0x164 contiki-srf06-cc26xx.a(csma.o)
 .text.init     0x0000000000008d24       0x24 contiki-srf06-cc26xx.a(csma.o)
 .text.tx_done  0x0000000000008d48       0x94 contiki-srf06-cc26xx.a(csma.o)
 .text.packet_sent
                0x0000000000008ddc       0xe8 contiki-srf06-cc26xx.a(csma.o)
 .text.mac_call_sent_callback
                0x0000000000008ec4       0x10 contiki-srf06-cc26xx.a(mac.o)
                0x0000000000008ec4                mac_call_sent_callback
 .text.on       0x0000000000008ed4        0xc contiki-srf06-cc26xx.a(nullrdc.o)
 .text.channel_check_interval
                0x0000000000008ee0        0x4 contiki-srf06-cc26xx.a(nullrdc.o)
 .text.init     0x0000000000008ee4        0xc contiki-srf06-cc26xx.a(nullrdc.o)
 .text.send_one_packet
                0x0000000000008ef0      0x114 contiki-srf06-cc26xx.a(nullrdc.o)
 .text.send_list
                0x0000000000009004       0x24 contiki-srf06-cc26xx.a(nullrdc.o)
 .text.send_packet
                0x0000000000009028        0x4 contiki-srf06-cc26xx.a(nullrdc.o)
 .text.off      0x000000000000902c       0x1c contiki-srf06-cc26xx.a(nullrdc.o)
 .text.packet_input
                0x0000000000009048       0x54 contiki-srf06-cc26xx.a(nullrdc.o)
 .text.init     0x000000000000909c        0x4 contiki-srf06-cc26xx.a(nullsec.o)
 .text.input    0x00000000000090a0        0xc contiki-srf06-cc26xx.a(nullsec.o)
 .text.send     0x00000000000090ac       0x20 contiki-srf06-cc26xx.a(nullsec.o)
 .text.sensor_common_read_reg
                0x00000000000090cc       0x1c contiki-srf06-cc26xx.a(sensor-common.o)
                0x00000000000090cc                sensor_common_read_reg
 .text.sensor_common_write_reg
                0x00000000000090e8       0x38 contiki-srf06-cc26xx.a(sensor-common.o)
                0x00000000000090e8                sensor_common_write_reg
 .text.sensor_common_set_error_data
                0x0000000000009120       0x10 contiki-srf06-cc26xx.a(sensor-common.o)
                0x0000000000009120                sensor_common_set_error_data
 .text.write_enable
                0x0000000000009130       0x2c contiki-srf06-cc26xx.a(ext-flash.o)
 .text.verify_part
                0x000000000000915c       0x7c contiki-srf06-cc26xx.a(ext-flash.o)
 .text.wait_ready
                0x00000000000091d8       0x64 contiki-srf06-cc26xx.a(ext-flash.o)
 .text.power_down
                0x000000000000923c       0x50 contiki-srf06-cc26xx.a(ext-flash.o)
 .text.ext_flash_open
                0x000000000000928c       0x60 contiki-srf06-cc26xx.a(ext-flash.o)
                0x000000000000928c                ext_flash_open
 .text.ext_flash_close
                0x00000000000092ec       0x10 contiki-srf06-cc26xx.a(ext-flash.o)
                0x00000000000092ec                ext_flash_close
 .text.ext_flash_read
                0x00000000000092fc       0x54 contiki-srf06-cc26xx.a(ext-flash.o)
                0x00000000000092fc                ext_flash_read
 .text.ext_flash_write
                0x0000000000009350       0x98 contiki-srf06-cc26xx.a(ext-flash.o)
                0x0000000000009350                ext_flash_write
 .text.ext_flash_erase
                0x00000000000093e8       0x90 contiki-srf06-cc26xx.a(ext-flash.o)
                0x00000000000093e8                ext_flash_erase
 .text.ext_flash_init
                0x0000000000009478       0x14 contiki-srf06-cc26xx.a(ext-flash.o)
                0x0000000000009478                ext_flash_init
 .text.accessible
                0x000000000000948c       0x24 contiki-srf06-cc26xx.a(board-spi.o)
 .text.board_spi_write
                0x00000000000094b0       0x3c contiki-srf06-cc26xx.a(board-spi.o)
                0x00000000000094b0                board_spi_write
 .text.board_spi_read
                0x00000000000094ec       0x48 contiki-srf06-cc26xx.a(board-spi.o)
                0x00000000000094ec                board_spi_read
 .text.board_spi_flush
                0x0000000000009534       0x24 contiki-srf06-cc26xx.a(board-spi.o)
                0x0000000000009534                board_spi_flush
 .text.board_spi_open
                0x0000000000009558       0xc0 contiki-srf06-cc26xx.a(board-spi.o)
                0x0000000000009558                board_spi_open
 .text.board_spi_close
                0x0000000000009618       0x70 contiki-srf06-cc26xx.a(board-spi.o)
                0x0000000000009618                board_spi_close
 .text.aux_ctrl_power_up
                0x0000000000009688       0x28 contiki-srf06-cc26xx.a(aux-ctrl.o)
                0x0000000000009688                aux_ctrl_power_up
 .text.aux_ctrl_register_consumer
                0x00000000000096b0       0x40 contiki-srf06-cc26xx.a(aux-ctrl.o)
                0x00000000000096b0                aux_ctrl_register_consumer
 .text.aux_ctrl_power_down
                0x00000000000096f0       0x6c contiki-srf06-cc26xx.a(aux-ctrl.o)
                0x00000000000096f0                aux_ctrl_power_down
 .text.aux_ctrl_unregister_consumer
                0x000000000000975c       0x28 contiki-srf06-cc26xx.a(aux-ctrl.o)
                0x000000000000975c                aux_ctrl_unregister_consumer
 .text.process_thread_rf_core_process
                0x0000000000009784       0x58 contiki-srf06-cc26xx.a(rf-core.o)
 .text.rf_core_is_accessible
                0x00000000000097dc       0x10 contiki-srf06-cc26xx.a(rf-core.o)
                0x00000000000097dc                rf_core_is_accessible
 .text.rf_core_send_cmd
                0x00000000000097ec       0xa4 contiki-srf06-cc26xx.a(rf-core.o)
                0x00000000000097ec                rf_core_send_cmd
 .text.rf_core_wait_cmd_done
                0x0000000000009890       0x30 contiki-srf06-cc26xx.a(rf-core.o)
                0x0000000000009890                rf_core_wait_cmd_done
 .text.rf_core_power_up
                0x00000000000098c0       0xcc contiki-srf06-cc26xx.a(rf-core.o)
                0x00000000000098c0                rf_core_power_up
 .text.rf_core_start_rat
                0x000000000000998c       0x68 contiki-srf06-cc26xx.a(rf-core.o)
                0x000000000000998c                rf_core_start_rat
 .text.rf_core_stop_rat
                0x00000000000099f4       0x7c contiki-srf06-cc26xx.a(rf-core.o)
                0x00000000000099f4                rf_core_stop_rat
 .text.rf_core_power_down
                0x0000000000009a70       0xec contiki-srf06-cc26xx.a(rf-core.o)
                0x0000000000009a70                rf_core_power_down
 .text.rf_core_set_modesel
                0x0000000000009b5c       0x44 contiki-srf06-cc26xx.a(rf-core.o)
                0x0000000000009b5c                rf_core_set_modesel
 .text.rf_core_boot
                0x0000000000009ba0       0x1c contiki-srf06-cc26xx.a(rf-core.o)
                0x0000000000009ba0                rf_core_boot
 .text.rf_core_restart_rat
                0x0000000000009bbc       0x18 contiki-srf06-cc26xx.a(rf-core.o)
                0x0000000000009bbc                rf_core_restart_rat
 .text.rf_core_setup_interrupts
                0x0000000000009bd4       0x74 contiki-srf06-cc26xx.a(rf-core.o)
                0x0000000000009bd4                rf_core_setup_interrupts
 .text.rf_core_cmd_done_en
                0x0000000000009c48       0x28 contiki-srf06-cc26xx.a(rf-core.o)
                0x0000000000009c48                rf_core_cmd_done_en
 .text.rf_core_cmd_done_dis
                0x0000000000009c70       0x18 contiki-srf06-cc26xx.a(rf-core.o)
                0x0000000000009c70                rf_core_cmd_done_dis
 .text.rf_core_get_last_radio_op
                0x0000000000009c88        0xc contiki-srf06-cc26xx.a(rf-core.o)
                0x0000000000009c88                rf_core_get_last_radio_op
 .text.rf_core_init_radio_op
                0x0000000000009c94       0x20 contiki-srf06-cc26xx.a(rf-core.o)
                0x0000000000009c94                rf_core_init_radio_op
 .text.rf_core_primary_mode_register
                0x0000000000009cb4        0xc contiki-srf06-cc26xx.a(rf-core.o)
                0x0000000000009cb4                rf_core_primary_mode_register
 .text.RFCCPE1IntHandler
                0x0000000000009cc0       0x28 contiki-srf06-cc26xx.a(rf-core.o)
                0x0000000000009cc0                RFCCPE1IntHandler
 .text.RFCCPE0IntHandler
                0x0000000000009ce8       0x5c contiki-srf06-cc26xx.a(rf-core.o)
                0x0000000000009ce8                RFCCPE0IntHandler
 .text.rf_ble_is_active
                0x0000000000009d44        0xc contiki-srf06-cc26xx.a(rf-ble.o)
                0x0000000000009d44                rf_ble_is_active
 .text.memb_init
                0x0000000000009d50       0x24 contiki-srf06-cc26xx.a(memb.o)
                0x0000000000009d50                memb_init
 .text.memb_alloc
                0x0000000000009d74       0x3c contiki-srf06-cc26xx.a(memb.o)
                0x0000000000009d74                memb_alloc
 .text.memb_free
                0x0000000000009db0       0x44 contiki-srf06-cc26xx.a(memb.o)
                0x0000000000009db0                memb_free
 .text.memb_inmemb
                0x0000000000009df4       0x1c contiki-srf06-cc26xx.a(memb.o)
                0x0000000000009df4                memb_inmemb
 .text.adv_packet_sent
                0x0000000000009e10        0x4 contiki-srf06-cc26xx.a(broadcast-annou)
 .text.set_timers
                0x0000000000009e14       0x3c contiki-srf06-cc26xx.a(broadcast-annou)
 .text.send_timer
                0x0000000000009e50       0x18 contiki-srf06-cc26xx.a(broadcast-annou)
 .text.send_adv
                0x0000000000009e68       0x58 contiki-srf06-cc26xx.a(broadcast-annou)
 .text.adv_packet_received
                0x0000000000009ec0       0x48 contiki-srf06-cc26xx.a(broadcast-annou)
 .text.new_announcement
                0x0000000000009f08       0x18 contiki-srf06-cc26xx.a(broadcast-annou)
 .text.broadcast_announcement_init
                0x0000000000009f20       0x30 contiki-srf06-cc26xx.a(broadcast-annou)
                0x0000000000009f20                broadcast_announcement_init
 .text.abc_open
                0x0000000000009f50       0x20 contiki-srf06-cc26xx.a(abc.o)
                0x0000000000009f50                abc_open
 .text.abc_close
                0x0000000000009f70        0x4 contiki-srf06-cc26xx.a(abc.o)
                0x0000000000009f70                abc_close
 .text.abc_send
                0x0000000000009f74        0x4 contiki-srf06-cc26xx.a(abc.o)
                0x0000000000009f74                abc_send
 .text.abc_input
                0x0000000000009f78        0xc contiki-srf06-cc26xx.a(abc.o)
                0x0000000000009f78                abc_input
 .text.abc_sent
                0x0000000000009f84        0xc contiki-srf06-cc26xx.a(abc.o)
                0x0000000000009f84                abc_sent
 .text.announcement_init
                0x0000000000009f90        0xc contiki-srf06-cc26xx.a(announcement.o)
                0x0000000000009f90                announcement_init
 .text.announcement_register_observer_callback
                0x0000000000009f9c        0xc contiki-srf06-cc26xx.a(announcement.o)
                0x0000000000009f9c                announcement_register_observer_callback
 .text.announcement_list
                0x0000000000009fa8        0xc contiki-srf06-cc26xx.a(announcement.o)
                0x0000000000009fa8                announcement_list
 .text.announcement_heard
                0x0000000000009fb4       0x3c contiki-srf06-cc26xx.a(announcement.o)
                0x0000000000009fb4                announcement_heard
 .text.chameleon_init
                0x0000000000009ff0        0x4 contiki-srf06-cc26xx.a(chameleon.o)
                0x0000000000009ff0                chameleon_init
 .text.chameleon_parse
                0x0000000000009ff4       0x1c contiki-srf06-cc26xx.a(chameleon.o)
                0x0000000000009ff4                chameleon_parse
 .text.chameleon_create
                0x000000000000a010       0x20 contiki-srf06-cc26xx.a(chameleon.o)
                0x000000000000a010                chameleon_create
 .text.chameleon_hdrsize
                0x000000000000a030        0xc contiki-srf06-cc26xx.a(chameleon.o)
                0x000000000000a030                chameleon_hdrsize
 .text.NOROM_SetupGetTrimForXoscHfCtl.part.3
                0x000000000000a03c       0x20 contiki-srf06-cc26xx.a(setup_rom.o)
 .text.NOROM_SetupGetTrimForRadcExtCfg.part.4
                0x000000000000a05c       0x20 contiki-srf06-cc26xx.a(setup_rom.o)
 .text.NOROM_SetupAfterColdResetWakeupFromShutDownCfg1
                0x000000000000a07c       0x7c contiki-srf06-cc26xx.a(setup_rom.o)
                0x000000000000a07c                NOROM_SetupAfterColdResetWakeupFromShutDownCfg1
 .text.NOROM_SetupAfterColdResetWakeupFromShutDownCfg3
                0x000000000000a0f8      0x194 contiki-srf06-cc26xx.a(setup_rom.o)
                0x000000000000a0f8                NOROM_SetupAfterColdResetWakeupFromShutDownCfg3
 .text.NOROM_SetupGetTrimForAnabypassValue1
                0x000000000000a28c       0x64 contiki-srf06-cc26xx.a(setup_rom.o)
                0x000000000000a28c                NOROM_SetupGetTrimForAnabypassValue1
 .text.NOROM_SetupGetTrimForAmpcompCtrl
                0x000000000000a2f0       0x74 contiki-srf06-cc26xx.a(setup_rom.o)
                0x000000000000a2f0                NOROM_SetupGetTrimForAmpcompCtrl
 .text.NOROM_SetupAfterColdResetWakeupFromShutDownCfg2
                0x000000000000a364      0x194 contiki-srf06-cc26xx.a(setup_rom.o)
                0x000000000000a364                NOROM_SetupAfterColdResetWakeupFromShutDownCfg2
 .text.NOROM_SetupSetCacheModeAccordingToCcfgSetting
                0x000000000000a4f8       0x6c contiki-srf06-cc26xx.a(setup_rom.o)
                0x000000000000a4f8                NOROM_SetupSetCacheModeAccordingToCcfgSetting
 .text.mac_sequence_is_duplicate
                0x000000000000a564       0x50 contiki-srf06-cc26xx.a(mac-sequence.o)
                0x000000000000a564                mac_sequence_is_duplicate
 .text.mac_sequence_register_seqno
                0x000000000000a5b4       0x6c contiki-srf06-cc26xx.a(mac-sequence.o)
                0x000000000000a5b4                mac_sequence_register_seqno
 .text.parse    0x000000000000a620       0xa4 contiki-srf06-cc26xx.a(framer-802154.o)
 .text.create_frame.isra.0
                0x000000000000a6c4      0x140 contiki-srf06-cc26xx.a(framer-802154.o)
 .text.create   0x000000000000a804        0x8 contiki-srf06-cc26xx.a(framer-802154.o)
 .text.hdr_length
                0x000000000000a80c        0x8 contiki-srf06-cc26xx.a(framer-802154.o)
 .text.header_size
                0x000000000000a814       0x1c contiki-srf06-cc26xx.a(chameleon-bitop)
 .text.get_bits
                0x000000000000a830       0xa8 contiki-srf06-cc26xx.a(chameleon-bitop)
                0x000000000000a830                get_bits
 .text.unpack_header
                0x000000000000a8d8       0xb8 contiki-srf06-cc26xx.a(chameleon-bitop)
 .text.set_bits
                0x000000000000a990       0xcc contiki-srf06-cc26xx.a(chameleon-bitop)
                0x000000000000a990                set_bits
 .text.pack_header
                0x000000000000aa5c       0xa8 contiki-srf06-cc26xx.a(chameleon-bitop)
 .text.frame802154_get_pan_id
                0x000000000000ab04        0xc contiki-srf06-cc26xx.a(frame802154.o)
                0x000000000000ab04                frame802154_get_pan_id
 .text.frame802154_has_panid
                0x000000000000ab10       0xb8 contiki-srf06-cc26xx.a(frame802154.o)
                0x000000000000ab10                frame802154_has_panid
 .text.field_len
                0x000000000000abc8       0x9c contiki-srf06-cc26xx.a(frame802154.o)
 .text.frame802154_is_broadcast_addr
                0x000000000000ac64       0x20 contiki-srf06-cc26xx.a(frame802154.o)
                0x000000000000ac64                frame802154_is_broadcast_addr
 .text.frame802154_hdrlen
                0x000000000000ac84       0x34 contiki-srf06-cc26xx.a(frame802154.o)
                0x000000000000ac84                frame802154_hdrlen
 .text.frame802154_create_fcf
                0x000000000000acb8       0x64 contiki-srf06-cc26xx.a(frame802154.o)
                0x000000000000acb8                frame802154_create_fcf
 .text.frame802154_create
                0x000000000000ad1c       0xb8 contiki-srf06-cc26xx.a(frame802154.o)
                0x000000000000ad1c                frame802154_create
 .text.frame802154_parse_fcf
                0x000000000000add4       0x4c contiki-srf06-cc26xx.a(frame802154.o)
                0x000000000000add4                frame802154_parse_fcf
 .text.frame802154_parse
                0x000000000000ae20      0x134 contiki-srf06-cc26xx.a(frame802154.o)
                0x000000000000ae20                frame802154_parse
 .text.exp2     0x000000000000af54       0x10 /usr/lib/gcc/arm-none-eabi/4.9.3/../../../arm-none-eabi/lib/armv7-m/libm.a(lib_a-w_exp2.o)
                0x000000000000af54                exp2
 .text.pow      0x000000000000af64      0x2f0 /usr/lib/gcc/arm-none-eabi/4.9.3/../../../arm-none-eabi/lib/armv7-m/libm.a(lib_a-w_pow.o)
                0x000000000000af64                pow
 .text.__ieee754_sqrt
                0x000000000000b254      0x18c /usr/lib/gcc/arm-none-eabi/4.9.3/../../../arm-none-eabi/lib/armv7-m/libm.a(lib_a-e_sqrt.o)
                0x000000000000b254                __ieee754_sqrt
 .text.fabs     0x000000000000b3e0        0x8 /usr/lib/gcc/arm-none-eabi/4.9.3/../../../arm-none-eabi/lib/armv7-m/libm.a(lib_a-s_fabs.o)
                0x000000000000b3e0                fabs
 .text.finite   0x000000000000b3e8        0xc /usr/lib/gcc/arm-none-eabi/4.9.3/../../../arm-none-eabi/lib/armv7-m/libm.a(lib_a-s_finite.o)
                0x000000000000b3e8                finite
 .text.__fpclassifyd
                0x000000000000b3f4       0x58 /usr/lib/gcc/arm-none-eabi/4.9.3/../../../arm-none-eabi/lib/armv7-m/libm.a(lib_a-s_fpclassify.o)
                0x000000000000b3f4                __fpclassifyd
 .text.matherr  0x000000000000b44c        0x4 /usr/lib/gcc/arm-none-eabi/4.9.3/../../../arm-none-eabi/lib/armv7-m/libm.a(lib_a-s_matherr.o)
                0x000000000000b44c                matherr
 .text.nan      0x000000000000b450        0xc /usr/lib/gcc/arm-none-eabi/4.9.3/../../../arm-none-eabi/lib/armv7-m/libm.a(lib_a-s_nan.o)
                0x000000000000b450                nan
 .text.rint     0x000000000000b45c      0x11c /usr/lib/gcc/arm-none-eabi/4.9.3/../../../arm-none-eabi/lib/armv7-m/libm.a(lib_a-s_rint.o)
                0x000000000000b45c                rint
 .text.copysign
                0x000000000000b578       0x10 /usr/lib/gcc/arm-none-eabi/4.9.3/../../../arm-none-eabi/lib/armv7-m/libm.a(lib_a-s_copysign.o)
                0x000000000000b578                copysign
 .text          0x000000000000b588      0x370 /usr/lib/gcc/arm-none-eabi/4.9.3/armv7-m/libgcc.a(_arm_addsubdf3.o)
                0x000000000000b588                __aeabi_drsub
                0x000000000000b590                __aeabi_dsub
                0x000000000000b590                __subdf3
                0x000000000000b594                __adddf3
                0x000000000000b594                __aeabi_dadd
                0x000000000000b80c                __aeabi_ui2d
                0x000000000000b80c                __floatunsidf
                0x000000000000b82c                __floatsidf
                0x000000000000b82c                __aeabi_i2d
                0x000000000000b850                __extendsfdf2
                0x000000000000b850                __aeabi_f2d
                0x000000000000b88c                __aeabi_ul2d
                0x000000000000b88c                __floatundidf
                0x000000000000b89c                __floatdidf
                0x000000000000b89c                __aeabi_l2d
 .text          0x000000000000b8f8      0x424 /usr/lib/gcc/arm-none-eabi/4.9.3/armv7-m/libgcc.a(_arm_muldivdf3.o)
                0x000000000000b8f8                __aeabi_dmul
                0x000000000000b8f8                __muldf3
                0x000000000000bb4c                __aeabi_ddiv
                0x000000000000bb4c                __divdf3
 .text          0x000000000000bd1c      0x110 /usr/lib/gcc/arm-none-eabi/4.9.3/armv7-m/libgcc.a(_arm_cmpdf2.o)
                0x000000000000bd1c                __gtdf2
                0x000000000000bd1c                __gedf2
                0x000000000000bd24                __ltdf2
                0x000000000000bd24                __ledf2
                0x000000000000bd2c                __cmpdf2
                0x000000000000bd2c                __eqdf2
                0x000000000000bd2c                __nedf2
                0x000000000000bda8                __aeabi_cdrcmple
                0x000000000000bdb8                __aeabi_cdcmple
                0x000000000000bdb8                __aeabi_cdcmpeq
                0x000000000000bdc8                __aeabi_dcmpeq
                0x000000000000bddc                __aeabi_dcmplt
                0x000000000000bdf0                __aeabi_dcmple
                0x000000000000be04                __aeabi_dcmpge
                0x000000000000be18                __aeabi_dcmpgt
 .text          0x000000000000be2c       0xa0 /usr/lib/gcc/arm-none-eabi/4.9.3/armv7-m/libgcc.a(_arm_truncdfsf2.o)
                0x000000000000be2c                __aeabi_d2f
                0x000000000000be2c                __truncdfsf2
 .text          0x000000000000becc      0x21c /usr/lib/gcc/arm-none-eabi/4.9.3/armv7-m/libgcc.a(_arm_addsubsf3.o)
                0x000000000000becc                __aeabi_frsub
                0x000000000000bed4                __subsf3
                0x000000000000bed4                __aeabi_fsub
                0x000000000000bed8                __aeabi_fadd
                0x000000000000bed8                __addsf3
                0x000000000000c038                __aeabi_ui2f
                0x000000000000c038                __floatunsisf
                0x000000000000c040                __aeabi_i2f
                0x000000000000c040                __floatsisf
                0x000000000000c05c                __floatundisf
                0x000000000000c05c                __aeabi_ul2f
                0x000000000000c06c                __floatdisf
                0x000000000000c06c                __aeabi_l2f
 .text          0x000000000000c0e8      0x2a0 /usr/lib/gcc/arm-none-eabi/4.9.3/armv7-m/libgcc.a(_arm_muldivsf3.o)
                0x000000000000c0e8                __mulsf3
                0x000000000000c0e8                __aeabi_fmul
                0x000000000000c250                __divsf3
                0x000000000000c250                __aeabi_fdiv
 .text          0x000000000000c388       0x4c /usr/lib/gcc/arm-none-eabi/4.9.3/armv7-m/libgcc.a(_arm_fixsfsi.o)
                0x000000000000c388                __fixsfsi
                0x000000000000c388                __aeabi_f2iz
 .text          0x000000000000c3d4       0x30 /usr/lib/gcc/arm-none-eabi/4.9.3/armv7-m/libgcc.a(_aeabi_uldivmod.o)
                0x000000000000c3d4                __aeabi_uldivmod
 .text          0x000000000000c404       0x60 /usr/lib/gcc/arm-none-eabi/4.9.3/armv7-m/libgcc.a(bpabi.o)
                0x000000000000c404                __gnu_ldivmod_helper
                0x000000000000c434                __gnu_uldivmod_helper
 .text          0x000000000000c464        0x4 /usr/lib/gcc/arm-none-eabi/4.9.3/armv7-m/libgcc.a(_dvmd_tls.o)
                0x000000000000c464                __aeabi_ldiv0
                0x000000000000c464                __aeabi_idiv0
 .text          0x000000000000c468      0x2ac /usr/lib/gcc/arm-none-eabi/4.9.3/armv7-m/libgcc.a(_divdi3.o)
                0x000000000000c468                __divdi3
 .text          0x000000000000c714      0x270 /usr/lib/gcc/arm-none-eabi/4.9.3/armv7-m/libgcc.a(_udivdi3.o)
                0x000000000000c714                __udivdi3
 .text.atoi     0x000000000000c984        0x8 /usr/lib/gcc/arm-none-eabi/4.9.3/../../../arm-none-eabi/lib/armv7-m/libc.a(lib_a-atoi.o)
                0x000000000000c984                atoi
 .text.__errno  0x000000000000c98c        0xc /usr/lib/gcc/arm-none-eabi/4.9.3/../../../arm-none-eabi/lib/armv7-m/libc.a(lib_a-errno.o)
                0x000000000000c98c                __errno
 .text.memcmp   0x000000000000c998       0x64 /usr/lib/gcc/arm-none-eabi/4.9.3/../../../arm-none-eabi/lib/armv7-m/libc.a(lib_a-memcmp.o)
                0x000000000000c998                memcmp
 .text          0x000000000000c9fc       0xec /usr/lib/gcc/arm-none-eabi/4.9.3/../../../arm-none-eabi/lib/armv7-m/libc.a(lib_a-memcpy.o)
                0x000000000000c9fc                memcpy
 .text.memset   0x000000000000cae8       0x9c /usr/lib/gcc/arm-none-eabi/4.9.3/../../../arm-none-eabi/lib/armv7-m/libc.a(lib_a-memset.o)
                0x000000000000cae8                memset
 .text          0x000000000000cb84      0x1bc /usr/lib/gcc/arm-none-eabi/4.9.3/../../../arm-none-eabi/lib/armv7-m/libc.a(lib_a-strcmp.o)
                0x000000000000cb84                strcmp
 .text.strlen   0x000000000000cd40       0x5c /usr/lib/gcc/arm-none-eabi/4.9.3/../../../arm-none-eabi/lib/armv7-m/libc.a(lib_a-strlen.o)
                0x000000000000cd40                strlen
 .text.strncpy  0x000000000000cd9c       0x68 /usr/lib/gcc/arm-none-eabi/4.9.3/../../../arm-none-eabi/lib/armv7-m/libc.a(lib_a-strncpy.o)
                0x000000000000cd9c                strncpy
 .text._strtol_r
                0x000000000000ce04      0x11c /usr/lib/gcc/arm-none-eabi/4.9.3/../../../arm-none-eabi/lib/armv7-m/libc.a(lib_a-strtol.o)
                0x000000000000ce04                _strtol_r
 .text.strtol   0x000000000000cf20       0x18 /usr/lib/gcc/arm-none-eabi/4.9.3/../../../arm-none-eabi/lib/armv7-m/libc.a(lib_a-strtol.o)
                0x000000000000cf20                strtol
 *(SORT(.rodata*))
 .rodata.dp_h   0x000000000000cf38       0x10 /usr/lib/gcc/arm-none-eabi/4.9.3/../../../arm-none-eabi/lib/armv7-m/libm.a(lib_a-e_pow.o)
 .rodata.dp_l   0x000000000000cf48       0x10 /usr/lib/gcc/arm-none-eabi/4.9.3/../../../arm-none-eabi/lib/armv7-m/libm.a(lib_a-e_pow.o)
 .rodata.bp     0x000000000000cf58       0x10 /usr/lib/gcc/arm-none-eabi/4.9.3/../../../arm-none-eabi/lib/armv7-m/libm.a(lib_a-e_pow.o)
 .rodata.TWO52  0x000000000000cf68       0x10 /usr/lib/gcc/arm-none-eabi/4.9.3/../../../arm-none-eabi/lib/armv7-m/libm.a(lib_a-s_rint.o)
 .rodata.mapping_id
                0x000000000000cf78       0x12 cc26xx-data-collection.co
 *fill*         0x000000000000cf8a        0x2 00000000
 .rodata.mapping_object
                0x000000000000cf8c       0x24 cc26xx-data-collection.co
 .rodata.str1.4
                0x000000000000cfb0      0x403 cc26xx-data-collection.co
                                        0x407 (size before relaxing)
 *fill*         0x000000000000d3b3        0x1 00000000
 .rodata.broadcast_call
                0x000000000000d3b4        0x8 cc26xx-data-collection.co
 .rodata.autostart_processes
                0x000000000000d3bc        0x8 cc26xx-data-collection.co
                0x000000000000d3bc                autostart_processes
 .rodata.str1.4
                0x000000000000d3c4       0xee contiki-srf06-cc26xx.a(contiki-main.o)
 *fill*         0x000000000000d4b2        0x2 00000000
 .rodata.str1.4
                0x000000000000d4b4        0x8 contiki-srf06-cc26xx.a(sensors.o)
 .rodata.str1.4
                0x000000000000d4bc        0x7 contiki-srf06-cc26xx.a(bmp-280-sensor.)
 *fill*         0x000000000000d4c3        0x1 00000000
 .rodata.bmp_280_sensor
                0x000000000000d4c4       0x10 contiki-srf06-cc26xx.a(bmp-280-sensor.)
                0x000000000000d4c4                bmp_280_sensor
 .rodata.tmp_007_sensor
                0x000000000000d4d4       0x10 contiki-srf06-cc26xx.a(tmp-007-sensor.)
                0x000000000000d4d4                tmp_007_sensor
 .rodata.str1.4
                0x000000000000d4e4        0x7 contiki-srf06-cc26xx.a(tmp-007-sensor.)
 *fill*         0x000000000000d4eb        0x1 00000000
 .rodata.str1.4
                0x000000000000d4ec        0x8 contiki-srf06-cc26xx.a(opt-3001-sensor)
 .rodata.opt_3001_sensor
                0x000000000000d4f4       0x10 contiki-srf06-cc26xx.a(opt-3001-sensor)
                0x000000000000d4f4                opt_3001_sensor
 .rodata.hdc_1000_sensor
                0x000000000000d504       0x10 contiki-srf06-cc26xx.a(hdc-1000-sensor)
                0x000000000000d504                hdc_1000_sensor
 .rodata.str1.4
                0x000000000000d514        0x8 contiki-srf06-cc26xx.a(hdc-1000-sensor)
 .rodata.mpu_9250_sensor
                0x000000000000d51c       0x10 contiki-srf06-cc26xx.a(mpu-9250-sensor)
                0x000000000000d51c                mpu_9250_sensor
 .rodata.str1.4
                0x000000000000d52c        0x8 contiki-srf06-cc26xx.a(mpu-9250-sensor)
 .rodata.str1.4
                0x000000000000d534        0x7 contiki-srf06-cc26xx.a(button-sensor.o)
 *fill*         0x000000000000d53b        0x1 00000000
 .rodata.button_left_sensor
                0x000000000000d53c       0x10 contiki-srf06-cc26xx.a(button-sensor.o)
                0x000000000000d53c                button_left_sensor
 .rodata.button_right_sensor
                0x000000000000d54c       0x10 contiki-srf06-cc26xx.a(button-sensor.o)
                0x000000000000d54c                button_right_sensor
 .rodata.str1.4
                0x000000000000d55c        0x5 contiki-srf06-cc26xx.a(reed-relay.o)
 *fill*         0x000000000000d561        0x3 00000000
 .rodata.reed_relay_sensor
                0x000000000000d564       0x10 contiki-srf06-cc26xx.a(reed-relay.o)
                0x000000000000d564                reed_relay_sensor
 .rodata.str1.4
                0x000000000000d574       0x10 contiki-srf06-cc26xx.a(batmon-sensor.o)
 .rodata.batmon_sensor
                0x000000000000d584       0x10 contiki-srf06-cc26xx.a(batmon-sensor.o)
                0x000000000000d584                batmon_sensor
 .rodata.output_power
                0x000000000000d594       0x68 contiki-srf06-cc26xx.a(ieee-mode.o)
 .rodata.mode_ieee
                0x000000000000d5fc        0x8 contiki-srf06-cc26xx.a(ieee-mode.o)
 .rodata.ieee_mode_driver
                0x000000000000d604       0x38 contiki-srf06-cc26xx.a(ieee-mode.o)
                0x000000000000d604                ieee_mode_driver
 .rodata.str1.4
                0x000000000000d63c       0x1b contiki-srf06-cc26xx.a(soc-trng.o)
 *fill*         0x000000000000d657        0x1 00000000
 .rodata.str1.4
                0x000000000000d658       0x46 contiki-srf06-cc26xx.a(strformat.o)
 *fill*         0x000000000000d69e        0x2 00000000
 .rodata.buffer.4019
                0x000000000000d6a0       0x10 contiki-srf06-cc26xx.a(strformat.o)
 .rodata.buffer.4028
                0x000000000000d6b0       0x10 contiki-srf06-cc26xx.a(strformat.o)
 .rodata.str1.4
                0x000000000000d6c0        0xf contiki-srf06-cc26xx.a(ctimer.o)
 *fill*         0x000000000000d6cf        0x1 00000000
 .rodata.str1.4
                0x000000000000d6d0        0xc contiki-srf06-cc26xx.a(etimer.o)
 .rodata.str1.4
                0x000000000000d6dc        0xe contiki-srf06-cc26xx.a(serial-line.o)
 *fill*         0x000000000000d6ea        0x2 00000000
 .rodata.attributes
                0x000000000000d6ec        0x4 contiki-srf06-cc26xx.a(broadcast.o)
 .rodata.broadcast
                0x000000000000d6f0        0x8 contiki-srf06-cc26xx.a(broadcast.o)
 .rodata.str1.4
                0x000000000000d6f8        0x5 contiki-srf06-cc26xx.a(rime.o)
 *fill*         0x000000000000d6fd        0x3 00000000
 .rodata.rime_driver
                0x000000000000d700        0xc contiki-srf06-cc26xx.a(rime.o)
                0x000000000000d700                rime_driver
 .rodata.linkaddr_null
                0x000000000000d70c        0x2 contiki-srf06-cc26xx.a(linkaddr.o)
                0x000000000000d70c                linkaddr_null
 *fill*         0x000000000000d70e        0x2 00000000
 .rodata.str1.4
                0x000000000000d710        0x5 contiki-srf06-cc26xx.a(csma.o)
 *fill*         0x000000000000d715        0x3 00000000
 .rodata.csma_driver
                0x000000000000d718       0x1c contiki-srf06-cc26xx.a(csma.o)
                0x000000000000d718                csma_driver
 .rodata.str1.4
                0x000000000000d734        0x8 contiki-srf06-cc26xx.a(nullrdc.o)
 .rodata.nullrdc_driver
                0x000000000000d73c       0x20 contiki-srf06-cc26xx.a(nullrdc.o)
                0x000000000000d73c                nullrdc_driver
 .rodata.str1.4
                0x000000000000d75c        0x8 contiki-srf06-cc26xx.a(nullsec.o)
 .rodata.nullsec_driver
                0x000000000000d764       0x10 contiki-srf06-cc26xx.a(nullsec.o)
                0x000000000000d764                nullsec_driver
 .rodata        0x000000000000d774        0x4 contiki-srf06-cc26xx.a(ext-flash.o)
 .rodata.str1.4
                0x000000000000d778       0x46 contiki-srf06-cc26xx.a(rf-core.o)
 *fill*         0x000000000000d7be        0x2 00000000
 .rodata.broadcast_callbacks
                0x000000000000d7c0        0x8 contiki-srf06-cc26xx.a(broadcast-annou)
 .rodata.attributes
                0x000000000000d7c8        0x2 contiki-srf06-cc26xx.a(abc.o)
 *fill*         0x000000000000d7ca        0x2 00000000
 .rodata.framer_802154
                0x000000000000d7cc        0xc contiki-srf06-cc26xx.a(framer-802154.o)
                0x000000000000d7cc                framer_802154
 .rodata.chameleon_bitopt
                0x000000000000d7d8        0xc contiki-srf06-cc26xx.a(chameleon-bitop)
                0x000000000000d7d8                chameleon_bitopt
 .rodata.bitmask
                0x000000000000d7e4        0x9 contiki-srf06-cc26xx.a(chameleon-bitop)
 *fill*         0x000000000000d7ed        0x3 00000000
 .rodata.str1.4
                0x000000000000d7f0        0x4 /usr/lib/gcc/arm-none-eabi/4.9.3/../../../arm-none-eabi/lib/armv7-m/libm.a(lib_a-w_pow.o)
 .rodata.str1.4
                0x000000000000d7f4        0x4 /usr/lib/gcc/arm-none-eabi/4.9.3/../../../arm-none-eabi/lib/armv7-m/libm.a(lib_a-e_pow.o)
 .rodata.str1.4
                0x000000000000d7f4        0x4 /usr/lib/gcc/arm-none-eabi/4.9.3/../../../arm-none-eabi/lib/armv7-m/libc.a(lib_a-impure.o)
 .rodata._ctype_
                0x000000000000d7f8      0x104 /usr/lib/gcc/arm-none-eabi/4.9.3/../../../arm-none-eabi/lib/armv7-m/libc.a(lib_a-ctype_.o)
                0x000000000000d7f8                _ctype_
                0x000000000000d8fc                _etext = .

.glue_7         0x000000000000d8fc        0x0
 .glue_7        0x000000000000d8fc        0x0 linker stubs

.glue_7t        0x000000000000d8fc        0x0
 .glue_7t       0x000000000000d8fc        0x0 linker stubs

.vfp11_veneer   0x000000000000d8fc        0x0
 .vfp11_veneer  0x000000000000d8fc        0x0 linker stubs

.v4_bx          0x000000000000d8fc        0x0
 .v4_bx         0x000000000000d8fc        0x0 linker stubs

.iplt           0x000000000000d8fc        0x0
 .iplt          0x000000000000d8fc        0x0 obj_srf06-cc26xx/startup_gcc.o

.data           0x0000000020000000      0x5ca load address 0x000000000000d8fc
                0x0000000020000000                _data = .
 *(SORT(vtable))
 *(SORT(.data*))
 .data.impure_data
                0x0000000020000000      0x428 /usr/lib/gcc/arm-none-eabi/4.9.3/../../../arm-none-eabi/lib/armv7-m/libc.a(lib_a-impure.o)
 .data.cc26xx_data_collection_loop_interval
                0x0000000020000428        0x4 cc26xx-data-collection.co
                0x0000000020000428                cc26xx_data_collection_loop_interval
 .data.sync_data
                0x000000002000042c       0x10 cc26xx-data-collection.co
                0x000000002000042c                sync_data
 .data.cc26xx_data_collection_process
                0x000000002000043c       0x10 cc26xx-data-collection.co
                0x000000002000043c                cc26xx_data_collection_process
 .data.pressure
                0x000000002000044c        0x4 cc26xx-data-collection.co
 .data.last_magnto_read
                0x0000000020000450        0x4 cc26xx-data-collection.co
 .data.x        0x0000000020000454        0x4 cc26xx-data-collection.co
                0x0000000020000454                x
 .data.temp     0x0000000020000458        0x4 cc26xx-data-collection.co
 .data.light    0x000000002000045c        0x4 cc26xx-data-collection.co
 .data.sensors_process
                0x0000000020000460       0x10 contiki-srf06-cc26xx.a(sensors.o)
                0x0000000020000460                sensors_process
 .data.sensors  0x0000000020000470       0x24 contiki-srf06-cc26xx.a(sensortag-senso)
                0x0000000020000470                sensors
 .data.buzzer_module
                0x0000000020000494       0x14 contiki-srf06-cc26xx.a(buzzer.o)
 .data.sensortag_module
                0x00000000200004a8       0x14 contiki-srf06-cc26xx.a(board.o)
 .data.uart_module
                0x00000000200004bc       0x14 contiki-srf06-cc26xx.a(cc26xx-uart.o)
 .data.cc26xx_rf_lpm_module
                0x00000000200004d0       0x14 contiki-srf06-cc26xx.a(ieee-mode.o)
 .data.ieee_overrides
                0x00000000200004e4       0x2c contiki-srf06-cc26xx.a(ieee-mode.o)
 .data.tx_power_current
                0x0000000020000510        0x4 contiki-srf06-cc26xx.a(ieee-mode.o)
                0x0000000020000510                tx_power_current
 .data.rng_module
                0x0000000020000514       0x14 contiki-srf06-cc26xx.a(soc-trng.o)
 .data.soc_trng_process
                0x0000000020000528       0x10 contiki-srf06-cc26xx.a(soc-trng.o)
                0x0000000020000528                soc_trng_process
 .data.ctxt     0x0000000020000538        0x8 contiki-srf06-cc26xx.a(dbg-printf.o)
 .data.ctimer_process
                0x0000000020000540       0x10 contiki-srf06-cc26xx.a(ctimer.o)
                0x0000000020000540                ctimer_process
 .data.etimer_process
                0x0000000020000550       0x10 contiki-srf06-cc26xx.a(etimer.o)
                0x0000000020000550                etimer_process
 .data.serial_line_process
                0x0000000020000560       0x10 contiki-srf06-cc26xx.a(serial-line.o)
                0x0000000020000560                serial_line_process
 .data.bufmem   0x0000000020000570        0xc contiki-srf06-cc26xx.a(queuebuf.o)
 .data.buframmem
                0x000000002000057c        0xc contiki-srf06-cc26xx.a(queuebuf.o)
 .data.metadata_memb
                0x0000000020000588        0xc contiki-srf06-cc26xx.a(csma.o)
 .data.neighbor_memb
                0x0000000020000594        0xc contiki-srf06-cc26xx.a(csma.o)
 .data.packet_memb
                0x00000000200005a0        0xc contiki-srf06-cc26xx.a(csma.o)
 .data.rf_core_process
                0x00000000200005ac       0x10 contiki-srf06-cc26xx.a(rf-core.o)
                0x00000000200005ac                rf_core_process
 .data._impure_ptr
                0x00000000200005bc        0x4 /usr/lib/gcc/arm-none-eabi/4.9.3/../../../arm-none-eabi/lib/armv7-m/libc.a(lib_a-impure.o)
                0x00000000200005bc                _impure_ptr
 .data.__ctype_ptr__
                0x00000000200005c0        0x4 /usr/lib/gcc/arm-none-eabi/4.9.3/../../../arm-none-eabi/lib/armv7-m/libc.a(lib_a-ctype_.o)
                0x00000000200005c0                __ctype_ptr__
 .data.mac_pan_id
                0x00000000200005c4        0x2 contiki-srf06-cc26xx.a(frame802154.o)
 .data.execute_once_flag
                0x00000000200005c6        0x1 cc26xx-data-collection.co
 .data.interface
                0x00000000200005c7        0x1 contiki-srf06-cc26xx.a(board-i2c.o)
 .data.rng_ready_event
                0x00000000200005c8        0x1 contiki-srf06-cc26xx.a(soc-trng.o)
 .data.__fdlib_version
                0x00000000200005c9        0x1 /usr/lib/gcc/arm-none-eabi/4.9.3/../../../arm-none-eabi/lib/armv7-m/libm.a(lib_a-s_lib_ver.o)
                0x00000000200005c9                __fdlib_version
                0x00000000200005ca                _edata = .

.igot.plt       0x00000000200005cc        0x0 load address 0x000000000000dec6
 .igot.plt      0x00000000200005cc        0x0 obj_srf06-cc26xx/startup_gcc.o

.ARM.exidx      0x000000000000dec8        0x8
 *(SORT(.ARM.exidx*))
 .ARM.exidx     0x000000000000dec8        0x8 /usr/lib/gcc/arm-none-eabi/4.9.3/armv7-m/libgcc.a(_divdi3.o)
 .ARM.exidx     0x000000000000ded0        0x0 /usr/lib/gcc/arm-none-eabi/4.9.3/armv7-m/libgcc.a(_udivdi3.o)
                                          0x8 (size before relaxing)

.bss            0x00000000200005d0     0x1474
                0x00000000200005d0                _bss = .
 *(SORT(.bss*))
 .bss.count     0x00000000200005d0        0x8 contiki-srf06-cc26xx.a(clock.o)
 .bss.last_rat_timestamp64
                0x00000000200005d8        0x8 contiki-srf06-cc26xx.a(ieee-mode.o)
 .bss.rands_cache
                0x00000000200005e0       0x20 contiki-srf06-cc26xx.a(soc-trng.o)
 .bss.opt_timer
                0x0000000020000600       0x20 cc26xx-data-collection.co
 .bss.magnto_enabled
                0x0000000020000620        0x4 cc26xx-data-collection.co
 .bss.bmp_timer
                0x0000000020000624       0x20 cc26xx-data-collection.co
 .bss.mpu_timer
                0x0000000020000644       0x20 cc26xx-data-collection.co
 .bss.start_time_when_get_timestamp
                0x0000000020000664        0x4 cc26xx-data-collection.co
 .bss.broadcast
                0x0000000020000668       0x18 cc26xx-data-collection.co
 .bss.received_packet
                0x0000000020000680       0x18 cc26xx-data-collection.co
 .bss.start     0x0000000020000698        0x4 cc26xx-data-collection.co
 .bss.accel_data
                0x000000002000069c        0xc cc26xx-data-collection.co
 .bss.sink_busy_timer_before
                0x00000000200006a8       0x20 cc26xx-data-collection.co
 .bss.et_test.9566
                0x00000000200006c8       0x10 cc26xx-data-collection.co
 .bss.accel_gyro_enabled
                0x00000000200006d8        0x4 cc26xx-data-collection.co
 .bss.total_size
                0x00000000200006dc        0x4 cc26xx-data-collection.co
                0x00000000200006dc                total_size
 .bss.tmp_timer
                0x00000000200006e0       0x20 cc26xx-data-collection.co
 .bss.timestamp
                0x0000000020000700        0x4 cc26xx-data-collection.co
 .bss.et_test.9539
                0x0000000020000704       0x10 cc26xx-data-collection.co
 .bss.magnto_data
                0x0000000020000714        0xc cc26xx-data-collection.co
 .bss.data_packet
                0x0000000020000720       0x18 cc26xx-data-collection.co
 .bss.gyro_data
                0x0000000020000738        0xc cc26xx-data-collection.co
 .bss.counter   0x0000000020000744        0x4 cc26xx-data-collection.co
 .bss.et        0x0000000020000748       0x10 cc26xx-data-collection.co
 .bss.sink_busy_timer_after
                0x0000000020000758       0x20 cc26xx-data-collection.co
 .bss.events.4848
                0x0000000020000778        0x4 contiki-srf06-cc26xx.a(sensors.o)
 .bss.i.4847    0x000000002000077c        0x4 contiki-srf06-cc26xx.a(sensors.o)
 .bss.inited    0x0000000020000780        0x4 contiki-srf06-cc26xx.a(leds-arch.o)
 .bss.sensor_value
                0x0000000020000784        0x6 contiki-srf06-cc26xx.a(bmp-280-sensor.)
 *fill*         0x000000002000078a        0x2 
 .bss.calibration_data
                0x000000002000078c       0x1c contiki-srf06-cc26xx.a(bmp-280-sensor.)
 .bss.startup_timer
                0x00000000200007a8       0x20 contiki-srf06-cc26xx.a(bmp-280-sensor.)
 .bss.enabled   0x00000000200007c8        0x4 contiki-srf06-cc26xx.a(bmp-280-sensor.)
 .bss.obj_temp_latched
                0x00000000200007cc        0x4 contiki-srf06-cc26xx.a(tmp-007-sensor.)
 .bss.startup_timer
                0x00000000200007d0       0x20 contiki-srf06-cc26xx.a(tmp-007-sensor.)
 .bss.enabled   0x00000000200007f0        0x4 contiki-srf06-cc26xx.a(tmp-007-sensor.)
 .bss.buf       0x00000000200007f4        0x4 contiki-srf06-cc26xx.a(tmp-007-sensor.)
 .bss.amb_temp_latched
                0x00000000200007f8        0x4 contiki-srf06-cc26xx.a(tmp-007-sensor.)
 .bss.startup_timer
                0x00000000200007fc       0x20 contiki-srf06-cc26xx.a(opt-3001-sensor)
 .bss.state     0x000000002000081c        0x4 contiki-srf06-cc26xx.a(opt-3001-sensor)
 .bss.startup_timer
                0x0000000020000820       0x20 contiki-srf06-cc26xx.a(hdc-1000-sensor)
 .bss.enabled   0x0000000020000840        0x4 contiki-srf06-cc26xx.a(hdc-1000-sensor)
 .bss.data      0x0000000020000844        0x4 contiki-srf06-cc26xx.a(hdc-1000-sensor)
 .bss.sensor_value
                0x0000000020000848        0x6 contiki-srf06-cc26xx.a(mpu-9250-sensor)
 *fill*         0x000000002000084e        0x2 
 .bss.startup_timer
                0x0000000020000850       0x20 contiki-srf06-cc26xx.a(mpu-9250-sensor)
 .bss.state     0x0000000020000870        0x4 contiki-srf06-cc26xx.a(mpu-9250-sensor)
 .bss.rawData.8091
                0x0000000020000874        0x3 contiki-srf06-cc26xx.a(mpu-9250-sensor)
 *fill*         0x0000000020000877        0x1 
 .bss.elements  0x0000000020000878        0x4 contiki-srf06-cc26xx.a(mpu-9250-sensor)
 .bss.right_timer
                0x000000002000087c       0x10 contiki-srf06-cc26xx.a(button-sensor.o)
 .bss.left_timer
                0x000000002000088c       0x10 contiki-srf06-cc26xx.a(button-sensor.o)
 .bss.debouncetimer
                0x000000002000089c        0x8 contiki-srf06-cc26xx.a(reed-relay.o)
 .bss.coffee_fd_set
                0x00000000200008a4       0x60 contiki-srf06-cc26xx.a(cfs-coffee.o)
 .bss.coffee_files
                0x0000000020000904       0x48 contiki-srf06-cc26xx.a(cfs-coffee.o)
 .bss.last_isr_time
                0x000000002000094c        0x4 contiki-srf06-cc26xx.a(soc-rtc.o)
 .bss.enabled   0x0000000020000950        0x4 contiki-srf06-cc26xx.a(batmon-sensor.o)
 .bss.input_handler
                0x0000000020000954        0x4 contiki-srf06-cc26xx.a(cc26xx-uart.o)
 .bss.modules_list_list
                0x0000000020000958        0x4 contiki-srf06-cc26xx.a(lpm.o)
 .bss.handlers  0x000000002000095c       0x80 contiki-srf06-cc26xx.a(gpio-interrupt.)
 .bss.rat_overflow_counter
                0x00000000200009dc        0x4 contiki-srf06-cc26xx.a(ieee-mode.o)
 .bss.last_packet_timestamp
                0x00000000200009e0        0x4 contiki-srf06-cc26xx.a(ieee-mode.o)
 .bss.rx_buf_0  0x00000000200009e4       0x90 contiki-srf06-cc26xx.a(ieee-mode.o)
 .bss.rx_buf_1  0x0000000020000a74       0x90 contiki-srf06-cc26xx.a(ieee-mode.o)
 .bss.rx_buf_2  0x0000000020000b04       0x90 contiki-srf06-cc26xx.a(ieee-mode.o)
 .bss.rx_buf_3  0x0000000020000b94       0x90 contiki-srf06-cc26xx.a(ieee-mode.o)
 .bss.last_value.8804
                0x0000000020000c24        0x4 contiki-srf06-cc26xx.a(ieee-mode.o)
 .bss.rx_data_queue
                0x0000000020000c28        0x8 contiki-srf06-cc26xx.a(ieee-mode.o)
 .bss.rat_overflow_timer
                0x0000000020000c30       0x20 contiki-srf06-cc26xx.a(ieee-mode.o)
 .bss.filter_cmd
                0x0000000020000c50        0x8 contiki-srf06-cc26xx.a(ieee-mode.o)
 .bss.rx_read_entry
                0x0000000020000c58        0x4 contiki-srf06-cc26xx.a(ieee-mode.o)
 .bss.last_rat_overflow
                0x0000000020000c5c        0x4 contiki-srf06-cc26xx.a(ieee-mode.o)
 .bss.cmd_ieee_rx_buf
                0x0000000020000c60       0x80 contiki-srf06-cc26xx.a(ieee-mode.o)
 .bss.rf_stats  0x0000000020000ce0       0x10 contiki-srf06-cc26xx.a(ieee-mode.o)
 .bss.tx_buf    0x0000000020000cf0       0xb6 contiki-srf06-cc26xx.a(ieee-mode.o)
 *fill*         0x0000000020000da6        0x2 
 .bss.notify_cb
                0x0000000020000da8        0x4 contiki-srf06-cc26xx.a(soc-trng.o)
 .bss.rands_mask
                0x0000000020000dac        0x4 contiki-srf06-cc26xx.a(soc-trng.o)
 .bss.ctimer_list_list
                0x0000000020000db0        0x4 contiki-srf06-cc26xx.a(ctimer.o)
 .bss.timerlist
                0x0000000020000db4        0x4 contiki-srf06-cc26xx.a(etimer.o)
 .bss.next_expiration
                0x0000000020000db8        0x4 contiki-srf06-cc26xx.a(etimer.o)
 .bss.process_current
                0x0000000020000dbc        0x4 contiki-srf06-cc26xx.a(process.o)
                0x0000000020000dbc                process_current
 .bss.process_list
                0x0000000020000dc0        0x4 contiki-srf06-cc26xx.a(process.o)
                0x0000000020000dc0                process_list
 .bss.events    0x0000000020000dc4      0x180 contiki-srf06-cc26xx.a(process.o)
 .bss.next_rtimer
                0x0000000020000f44        0x4 contiki-srf06-cc26xx.a(rtimer.o)
 .bss.rxbuf_data
                0x0000000020000f48       0x80 contiki-srf06-cc26xx.a(serial-line.o)
 .bss.rxbuf     0x0000000020000fc8        0x8 contiki-srf06-cc26xx.a(serial-line.o)
 .bss.buf.4831  0x0000000020000fd0       0x80 contiki-srf06-cc26xx.a(serial-line.o)
 .bss.ptr.4832  0x0000000020001050        0x4 contiki-srf06-cc26xx.a(serial-line.o)
 .bss.channel_list_list
                0x0000000020001054        0x4 contiki-srf06-cc26xx.a(channel.o)
 .bss.sniffers_list
                0x0000000020001058        0x4 contiki-srf06-cc26xx.a(rime.o)
 .bss.powerQualGlobals
                0x000000002000105c        0x8 contiki-srf06-cc26xx.a(sys_ctrl.o)
 .bss.buframmem_memb_count
                0x0000000020001064        0x8 contiki-srf06-cc26xx.a(queuebuf.o)
 .bss.bufmem_memb_mem
                0x000000002000106c       0x20 contiki-srf06-cc26xx.a(queuebuf.o)
 .bss.buframmem_memb_mem
                0x000000002000108c      0x5f0 contiki-srf06-cc26xx.a(queuebuf.o)
 .bss.bufmem_memb_count
                0x000000002000167c        0x8 contiki-srf06-cc26xx.a(queuebuf.o)
 .bss.packetbuf_aligned
                0x0000000020001684       0x80 contiki-srf06-cc26xx.a(packetbuf.o)
 .bss.metadata_memb_memb_count
                0x0000000020001704        0x8 contiki-srf06-cc26xx.a(csma.o)
 .bss.packet_memb_memb_count
                0x000000002000170c        0x8 contiki-srf06-cc26xx.a(csma.o)
 .bss.metadata_memb_memb_mem
                0x0000000020001714       0x60 contiki-srf06-cc26xx.a(csma.o)
 .bss.neighbor_list_list
                0x0000000020001774        0x4 contiki-srf06-cc26xx.a(csma.o)
 .bss.packet_memb_memb_mem
                0x0000000020001778       0x60 contiki-srf06-cc26xx.a(csma.o)
 .bss.neighbor_memb_memb_count
                0x00000000200017d8        0x2 contiki-srf06-cc26xx.a(csma.o)
 *fill*         0x00000000200017da        0x2 
 .bss.neighbor_memb_memb_mem
                0x00000000200017dc       0x68 contiki-srf06-cc26xx.a(csma.o)
 .bss.buffer    0x0000000020001844       0x20 contiki-srf06-cc26xx.a(sensor-common.o)
 .bss.consumers_list_list
                0x0000000020001864        0x4 contiki-srf06-cc26xx.a(aux-ctrl.o)
 .bss.last_radio_op
                0x0000000020001868        0x4 contiki-srf06-cc26xx.a(rf-core.o)
 .bss.primary_mode
                0x000000002000186c        0x4 contiki-srf06-cc26xx.a(rf-core.o)
 .bss.rat_offset
                0x0000000020001870        0x4 contiki-srf06-cc26xx.a(rf-core.o)
                0x0000000020001870                rat_offset
 .bss.c         0x0000000020001874       0x6c contiki-srf06-cc26xx.a(broadcast-annou)
 .bss.announcements_list
                0x00000000200018e0        0x4 contiki-srf06-cc26xx.a(announcement.o)
 .bss.observer_callback
                0x00000000200018e4        0x4 contiki-srf06-cc26xx.a(announcement.o)
 .bss.received_seqnos
                0x00000000200018e8       0xc0 contiki-srf06-cc26xx.a(mac-sequence.o)
 .bss.busy_node_id
                0x00000000200019a8        0x2 cc26xx-data-collection.co
 .bss.node_id   0x00000000200019aa        0x2 contiki-srf06-cc26xx.a(contiki-main.o)
                0x00000000200019aa                node_id
 .bss.val       0x00000000200019ac        0x2 contiki-srf06-cc26xx.a(tmp-007-sensor.)
 .bss.raw_temp  0x00000000200019ae        0x2 contiki-srf06-cc26xx.a(hdc-1000-sensor)
 .bss.raw_hum   0x00000000200019b0        0x2 contiki-srf06-cc26xx.a(hdc-1000-sensor)
 .bss.calX      0x00000000200019b2        0x2 contiki-srf06-cc26xx.a(mpu-9250-sensor)
 .bss.calY      0x00000000200019b4        0x2 contiki-srf06-cc26xx.a(mpu-9250-sensor)
 .bss.calZ      0x00000000200019b6        0x2 contiki-srf06-cc26xx.a(mpu-9250-sensor)
 .bss.next_free
                0x00000000200019b8        0x2 contiki-srf06-cc26xx.a(cfs-coffee.o)
 .bss.skip_pages.4897
                0x00000000200019ba        0x2 contiki-srf06-cc26xx.a(cfs-coffee.o)
 .bss.buflen    0x00000000200019bc        0x2 contiki-srf06-cc26xx.a(packetbuf.o)
 .bss.bufptr    0x00000000200019be        0x2 contiki-srf06-cc26xx.a(packetbuf.o)
 .bss.seqno.6294
                0x00000000200019c0        0x2 contiki-srf06-cc26xx.a(csma.o)
 .bss.time_set  0x00000000200019c2        0x1 cc26xx-data-collection.co
 .bss.busy_node_start
                0x00000000200019c3        0x1 cc26xx-data-collection.co
 .bss.sink_busy
                0x00000000200019c4        0x1 cc26xx-data-collection.co
 .bss.start_sync
                0x00000000200019c5        0x1 cc26xx-data-collection.co
 .bss.write_to_ext_flash
                0x00000000200019c6        0x1 cc26xx-data-collection.co
 .bss.num_sensors
                0x00000000200019c7        0x1 contiki-srf06-cc26xx.a(sensors.o)
 .bss.leds      0x00000000200019c8        0x1 contiki-srf06-cc26xx.a(leds.o)
 .bss.c         0x00000000200019c9        0x1 contiki-srf06-cc26xx.a(leds-arch.o)
 .bss.success   0x00000000200019ca        0x1 contiki-srf06-cc26xx.a(hdc-1000-sensor)
 .bss.interrupt_status
                0x00000000200019cb        0x1 contiki-srf06-cc26xx.a(mpu-9250-sensor)
 .bss.acc_range_reg
                0x00000000200019cc        0x1 contiki-srf06-cc26xx.a(mpu-9250-sensor)
 .bss.mpu_config
                0x00000000200019cd        0x1 contiki-srf06-cc26xx.a(mpu-9250-sensor)
 .bss.acc_range
                0x00000000200019ce        0x1 contiki-srf06-cc26xx.a(mpu-9250-sensor)
 .bss.magStatus
                0x00000000200019cf        0x1 contiki-srf06-cc26xx.a(mpu-9250-sensor)
 .bss.val       0x00000000200019d0        0x1 contiki-srf06-cc26xx.a(mpu-9250-sensor)
 .bss.buzzer_on
                0x00000000200019d1        0x1 contiki-srf06-cc26xx.a(buzzer.o)
 .bss.slave_addr
                0x00000000200019d2        0x1 contiki-srf06-cc26xx.a(board-i2c.o)
 .bss.gc_wait   0x00000000200019d3        0x1 contiki-srf06-cc26xx.a(cfs-coffee.o)
 .bss.last_pages_are_active.4898
                0x00000000200019d4        0x1 contiki-srf06-cc26xx.a(cfs-coffee.o)
 .bss.poll_mode
                0x00000000200019d5        0x1 contiki-srf06-cc26xx.a(ieee-mode.o)
 .bss.last_rssi
                0x00000000200019d6        0x1 contiki-srf06-cc26xx.a(ieee-mode.o)
 .bss.last_corr_lqi
                0x00000000200019d7        0x1 contiki-srf06-cc26xx.a(ieee-mode.o)
 .bss.initialized
                0x00000000200019d8        0x1 contiki-srf06-cc26xx.a(ctimer.o)
 .bss.fevent    0x00000000200019d9        0x1 contiki-srf06-cc26xx.a(process.o)
 .bss.nevents   0x00000000200019da        0x1 contiki-srf06-cc26xx.a(process.o)
 .bss.poll_requested
                0x00000000200019db        0x1 contiki-srf06-cc26xx.a(process.o)
 .bss.lastevent
                0x00000000200019dc        0x1 contiki-srf06-cc26xx.a(process.o)
 .bss.overflow.4825
                0x00000000200019dd        0x1 contiki-srf06-cc26xx.a(serial-line.o)
 .bss.hdrlen    0x00000000200019de        0x1 contiki-srf06-cc26xx.a(packetbuf.o)
 .bss.initialized.6293
                0x00000000200019df        0x1 contiki-srf06-cc26xx.a(csma.o)
 .bss.rat_offset_known
                0x00000000200019e0        0x1 contiki-srf06-cc26xx.a(rf-core.o)
 .bss.ble_mode_on
                0x00000000200019e1        0x1 contiki-srf06-cc26xx.a(rf-ble.o)
 .bss.mac_dsn   0x00000000200019e2        0x1 contiki-srf06-cc26xx.a(framer-802154.o)
 .bss.initialized
                0x00000000200019e3        0x1 contiki-srf06-cc26xx.a(framer-802154.o)
 *(SORT(COMMON))
 COMMON         0x00000000200019e4        0xe cc26xx-data-collection.co
                0x00000000200019e4                v1
                0x00000000200019e8                record_timestamp
                0x00000000200019ec                v3
                0x00000000200019ee                delimiter
                0x00000000200019f0                v2
 *fill*         0x00000000200019f2        0x2 
 COMMON         0x00000000200019f4        0x9 contiki-srf06-cc26xx.a(sensortag-senso)
                0x00000000200019f4                sensors_flags
 *fill*         0x00000000200019fd        0x3 
 COMMON         0x0000000020001a00        0x4 contiki-srf06-cc26xx.a(mpu-9250-sensor)
                0x0000000020001a00                t0
 COMMON         0x0000000020001a04       0x3c contiki-srf06-cc26xx.a(packetbuf.o)
                0x0000000020001a04                packetbuf_addrs
                0x0000000020001a0c                packetbuf_attrs
 COMMON         0x0000000020001a40        0x2 contiki-srf06-cc26xx.a(linkaddr.o)
                0x0000000020001a40                linkaddr_node_addr
 COMMON         0x0000000020001a42        0x1 contiki-srf06-cc26xx.a(sensors.o)
                0x0000000020001a42                sensors_event
 COMMON         0x0000000020001a43        0x1 contiki-srf06-cc26xx.a(serial-line.o)
                0x0000000020001a43                serial_line_event_message
                0x0000000020001a44                _ebss = .

.ccfg           0x000000000001ffa8       0x58
 *(SORT(.ccfg))
 .ccfg          0x000000000001ffa8       0x58 obj_srf06-cc26xx/ccfg.o
                0x000000000001ffa8                __ccfg

.rel.dyn        0x0000000000020000        0x0
 .rel.iplt      0x0000000000020000        0x0 obj_srf06-cc26xx/startup_gcc.o

._user_heap_stack
                0x0000000020001a44      0x100
                0x0000000020001a44                . = ALIGN (0x4)
                0x0000000020001a44                . = (. + _Min_Heap_Size)
                0x0000000020001b44                . = (. + _Min_Stack_Size)
 *fill*         0x0000000020001a44      0x100 
                0x0000000020001b44                . = ALIGN (0x4)

.gpram
OUTPUT(cc26xx-data-collection.elf elf32-littlearm)

.comment        0x0000000000000000       0x70
 .comment       0x0000000000000000       0x38 obj_srf06-cc26xx/fault-handlers.o
                                         0x39 (size before relaxing)
 .comment       0x0000000000000038       0x39 obj_srf06-cc26xx/ccfg.o
 .comment       0x0000000000000038       0x39 obj_srf06-cc26xx/startup_gcc.o
 .comment       0x0000000000000038       0x39 cc26xx-data-collection.co
 .comment       0x0000000000000038       0x39 contiki-srf06-cc26xx.a(contiki-main.o)
 .comment       0x0000000000000038       0x39 contiki-srf06-cc26xx.a(sensors.o)
 .comment       0x0000000000000038       0x39 contiki-srf06-cc26xx.a(leds.o)
 .comment       0x0000000000000038       0x39 contiki-srf06-cc26xx.a(leds-arch.o)
 .comment       0x0000000000000038       0x39 contiki-srf06-cc26xx.a(sensortag-senso)
 .comment       0x0000000000000038       0x39 contiki-srf06-cc26xx.a(bmp-280-sensor.)
 .comment       0x0000000000000038       0x39 contiki-srf06-cc26xx.a(tmp-007-sensor.)
 .comment       0x0000000000000038       0x39 contiki-srf06-cc26xx.a(opt-3001-sensor)
 .comment       0x0000000000000038       0x39 contiki-srf06-cc26xx.a(hdc-1000-sensor)
 .comment       0x0000000000000038       0x39 contiki-srf06-cc26xx.a(mpu-9250-sensor)
 .comment       0x0000000000000038       0x39 contiki-srf06-cc26xx.a(button-sensor.o)
 .comment       0x0000000000000038       0x39 contiki-srf06-cc26xx.a(reed-relay.o)
 .comment       0x0000000000000038       0x39 contiki-srf06-cc26xx.a(buzzer.o)
 .comment       0x0000000000000038       0x39 contiki-srf06-cc26xx.a(board.o)
 .comment       0x0000000000000038       0x39 contiki-srf06-cc26xx.a(board-i2c.o)
 .comment       0x0000000000000038       0x39 contiki-srf06-cc26xx.a(cfs-coffee.o)
 .comment       0x0000000000000038       0x39 contiki-srf06-cc26xx.a(xmem.o)
 .comment       0x0000000000000038       0x39 contiki-srf06-cc26xx.a(clock.o)
 .comment       0x0000000000000038       0x39 contiki-srf06-cc26xx.a(rtimer-arch.o)
 .comment       0x0000000000000038       0x39 contiki-srf06-cc26xx.a(soc-rtc.o)
 .comment       0x0000000000000038       0x39 contiki-srf06-cc26xx.a(contiki-watchdo)
 .comment       0x0000000000000038       0x39 contiki-srf06-cc26xx.a(putchar.o)
 .comment       0x0000000000000038       0x39 contiki-srf06-cc26xx.a(ieee-addr.o)
 .comment       0x0000000000000038       0x39 contiki-srf06-cc26xx.a(batmon-sensor.o)
 .comment       0x0000000000000038       0x39 contiki-srf06-cc26xx.a(cc26xx-uart.o)
 .comment       0x0000000000000038       0x39 contiki-srf06-cc26xx.a(lpm.o)
 .comment       0x0000000000000038       0x39 contiki-srf06-cc26xx.a(gpio-interrupt.)
 .comment       0x0000000000000038       0x39 contiki-srf06-cc26xx.a(oscillators.o)
 .comment       0x0000000000000038       0x39 contiki-srf06-cc26xx.a(ieee-mode.o)
 .comment       0x0000000000000038       0x39 contiki-srf06-cc26xx.a(random.o)
 .comment       0x0000000000000038       0x39 contiki-srf06-cc26xx.a(soc-trng.o)
 .comment       0x0000000000000038       0x39 contiki-srf06-cc26xx.a(dbg-printf.o)
 .comment       0x0000000000000038       0x39 contiki-srf06-cc26xx.a(strformat.o)
 .comment       0x0000000000000038       0x39 contiki-srf06-cc26xx.a(autostart.o)
 .comment       0x0000000000000038       0x39 contiki-srf06-cc26xx.a(energest.o)
 .comment       0x0000000000000038       0x39 contiki-srf06-cc26xx.a(ctimer.o)
 .comment       0x0000000000000038       0x39 contiki-srf06-cc26xx.a(etimer.o)
 .comment       0x0000000000000038       0x39 contiki-srf06-cc26xx.a(process.o)
 .comment       0x0000000000000038       0x39 contiki-srf06-cc26xx.a(rtimer.o)
 .comment       0x0000000000000038       0x39 contiki-srf06-cc26xx.a(timer.o)
 .comment       0x0000000000000038       0x39 contiki-srf06-cc26xx.a(serial-line.o)
 .comment       0x0000000000000038       0x39 contiki-srf06-cc26xx.a(list.o)
 .comment       0x0000000000000038       0x39 contiki-srf06-cc26xx.a(ringbuf.o)
 .comment       0x0000000000000038       0x39 contiki-srf06-cc26xx.a(broadcast.o)
 .comment       0x0000000000000038       0x39 contiki-srf06-cc26xx.a(channel.o)
 .comment       0x0000000000000038       0x39 contiki-srf06-cc26xx.a(rime.o)
 .comment       0x0000000000000038       0x39 contiki-srf06-cc26xx.a(pwr_ctrl.o)
 .comment       0x0000000000000038       0x39 contiki-srf06-cc26xx.a(setup.o)
 .comment       0x0000000000000038       0x39 contiki-srf06-cc26xx.a(aon_rtc.o)
 .comment       0x0000000000000038       0x39 contiki-srf06-cc26xx.a(osc.o)
 .comment       0x0000000000000038       0x39 contiki-srf06-cc26xx.a(aon_batmon.o)
 .comment       0x0000000000000038       0x39 contiki-srf06-cc26xx.a(sys_ctrl.o)
 .comment       0x0000000000000038       0x39 contiki-srf06-cc26xx.a(adi.o)
 .comment       0x0000000000000038       0x39 contiki-srf06-cc26xx.a(cpu.o)
 .comment       0x0000000000000038       0x39 contiki-srf06-cc26xx.a(ddi.o)
 .comment       0x0000000000000038       0x39 contiki-srf06-cc26xx.a(chipinfo.o)
 .comment       0x0000000000000038       0x39 contiki-srf06-cc26xx.a(trng.o)
 .comment       0x0000000000000038       0x39 contiki-srf06-cc26xx.a(queuebuf.o)
 .comment       0x0000000000000038       0x39 contiki-srf06-cc26xx.a(packetbuf.o)
 .comment       0x0000000000000038       0x39 contiki-srf06-cc26xx.a(netstack.o)
 .comment       0x0000000000000038       0x39 contiki-srf06-cc26xx.a(linkaddr.o)
 .comment       0x0000000000000038       0x39 contiki-srf06-cc26xx.a(csma.o)
 .comment       0x0000000000000038       0x39 contiki-srf06-cc26xx.a(mac.o)
 .comment       0x0000000000000038       0x39 contiki-srf06-cc26xx.a(nullrdc.o)
 .comment       0x0000000000000038       0x39 contiki-srf06-cc26xx.a(nullsec.o)
 .comment       0x0000000000000038       0x39 contiki-srf06-cc26xx.a(sensor-common.o)
 .comment       0x0000000000000038       0x39 contiki-srf06-cc26xx.a(ext-flash.o)
 .comment       0x0000000000000038       0x39 contiki-srf06-cc26xx.a(board-spi.o)
 .comment       0x0000000000000038       0x39 contiki-srf06-cc26xx.a(aux-ctrl.o)
 .comment       0x0000000000000038       0x39 contiki-srf06-cc26xx.a(rf-core.o)
 .comment       0x0000000000000038       0x39 contiki-srf06-cc26xx.a(rf-ble.o)
 .comment       0x0000000000000038       0x39 contiki-srf06-cc26xx.a(memb.o)
 .comment       0x0000000000000038       0x39 contiki-srf06-cc26xx.a(broadcast-annou)
 .comment       0x0000000000000038       0x39 contiki-srf06-cc26xx.a(abc.o)
 .comment       0x0000000000000038       0x39 contiki-srf06-cc26xx.a(announcement.o)
 .comment       0x0000000000000038       0x39 contiki-srf06-cc26xx.a(chameleon.o)
 .comment       0x0000000000000038       0x39 contiki-srf06-cc26xx.a(setup_rom.o)
 .comment       0x0000000000000038       0x39 contiki-srf06-cc26xx.a(mac-sequence.o)
 .comment       0x0000000000000038       0x39 contiki-srf06-cc26xx.a(framer-802154.o)
 .comment       0x0000000000000038       0x39 contiki-srf06-cc26xx.a(chameleon-bitop)
 .comment       0x0000000000000038       0x39 contiki-srf06-cc26xx.a(frame802154.o)
 .comment       0x0000000000000038       0x38 /usr/lib/gcc/arm-none-eabi/4.9.3/../../../arm-none-eabi/lib/armv7-m/libm.a(lib_a-w_exp2.o)
                                         0x39 (size before relaxing)
 .comment       0x0000000000000070       0x39 /usr/lib/gcc/arm-none-eabi/4.9.3/../../../arm-none-eabi/lib/armv7-m/libm.a(lib_a-w_pow.o)
 .comment       0x0000000000000070       0x39 /usr/lib/gcc/arm-none-eabi/4.9.3/../../../arm-none-eabi/lib/armv7-m/libm.a(lib_a-e_pow.o)
 .comment       0x0000000000000070       0x39 /usr/lib/gcc/arm-none-eabi/4.9.3/../../../arm-none-eabi/lib/armv7-m/libm.a(lib_a-e_sqrt.o)
 .comment       0x0000000000000070       0x39 /usr/lib/gcc/arm-none-eabi/4.9.3/../../../arm-none-eabi/lib/armv7-m/libm.a(lib_a-s_fabs.o)
 .comment       0x0000000000000070       0x39 /usr/lib/gcc/arm-none-eabi/4.9.3/../../../arm-none-eabi/lib/armv7-m/libm.a(lib_a-s_finite.o)
 .comment       0x0000000000000070       0x39 /usr/lib/gcc/arm-none-eabi/4.9.3/../../../arm-none-eabi/lib/armv7-m/libm.a(lib_a-s_fpclassify.o)
 .comment       0x0000000000000070       0x39 /usr/lib/gcc/arm-none-eabi/4.9.3/../../../arm-none-eabi/lib/armv7-m/libm.a(lib_a-s_lib_ver.o)
 .comment       0x0000000000000070       0x39 /usr/lib/gcc/arm-none-eabi/4.9.3/../../../arm-none-eabi/lib/armv7-m/libm.a(lib_a-s_matherr.o)
 .comment       0x0000000000000070       0x39 /usr/lib/gcc/arm-none-eabi/4.9.3/../../../arm-none-eabi/lib/armv7-m/libm.a(lib_a-s_nan.o)
 .comment       0x0000000000000070       0x39 /usr/lib/gcc/arm-none-eabi/4.9.3/../../../arm-none-eabi/lib/armv7-m/libm.a(lib_a-s_rint.o)
 .comment       0x0000000000000070       0x39 /usr/lib/gcc/arm-none-eabi/4.9.3/../../../arm-none-eabi/lib/armv7-m/libm.a(lib_a-s_scalbn.o)
 .comment       0x0000000000000070       0x39 /usr/lib/gcc/arm-none-eabi/4.9.3/../../../arm-none-eabi/lib/armv7-m/libm.a(lib_a-s_copysign.o)
 .comment       0x0000000000000070       0x39 /usr/lib/gcc/arm-none-eabi/4.9.3/armv7-m/libgcc.a(bpabi.o)
 .comment       0x0000000000000070       0x39 /usr/lib/gcc/arm-none-eabi/4.9.3/armv7-m/libgcc.a(_divdi3.o)
 .comment       0x0000000000000070       0x39 /usr/lib/gcc/arm-none-eabi/4.9.3/armv7-m/libgcc.a(_udivdi3.o)
 .comment       0x0000000000000070       0x39 /usr/lib/gcc/arm-none-eabi/4.9.3/../../../arm-none-eabi/lib/armv7-m/libc.a(lib_a-atoi.o)
 .comment       0x0000000000000070       0x39 /usr/lib/gcc/arm-none-eabi/4.9.3/../../../arm-none-eabi/lib/armv7-m/libc.a(lib_a-errno.o)
 .comment       0x0000000000000070       0x39 /usr/lib/gcc/arm-none-eabi/4.9.3/../../../arm-none-eabi/lib/armv7-m/libc.a(lib_a-impure.o)
 .comment       0x0000000000000070       0x39 /usr/lib/gcc/arm-none-eabi/4.9.3/../../../arm-none-eabi/lib/armv7-m/libc.a(lib_a-memcmp.o)
 .comment       0x0000000000000070       0x39 /usr/lib/gcc/arm-none-eabi/4.9.3/../../../arm-none-eabi/lib/armv7-m/libc.a(lib_a-memset.o)
 .comment       0x0000000000000070       0x39 /usr/lib/gcc/arm-none-eabi/4.9.3/../../../arm-none-eabi/lib/armv7-m/libc.a(lib_a-strlen.o)
 .comment       0x0000000000000070       0x39 /usr/lib/gcc/arm-none-eabi/4.9.3/../../../arm-none-eabi/lib/armv7-m/libc.a(lib_a-strncpy.o)
 .comment       0x0000000000000070       0x39 /usr/lib/gcc/arm-none-eabi/4.9.3/../../../arm-none-eabi/lib/armv7-m/libc.a(lib_a-strtol.o)
 .comment       0x0000000000000070       0x39 /usr/lib/gcc/arm-none-eabi/4.9.3/../../../arm-none-eabi/lib/armv7-m/libc.a(lib_a-ctype_.o)

.ARM.attributes
                0x0000000000000000       0x31
 .ARM.attributes
                0x0000000000000000       0x33 obj_srf06-cc26xx/fault-handlers.o
 .ARM.attributes
                0x0000000000000033       0x33 obj_srf06-cc26xx/ccfg.o
 .ARM.attributes
                0x0000000000000066       0x33 obj_srf06-cc26xx/startup_gcc.o
 .ARM.attributes
                0x0000000000000099       0x33 cc26xx-data-collection.co
 .ARM.attributes
                0x00000000000000cc       0x33 contiki-srf06-cc26xx.a(contiki-main.o)
 .ARM.attributes
                0x00000000000000ff       0x33 contiki-srf06-cc26xx.a(sensors.o)
 .ARM.attributes
                0x0000000000000132       0x33 contiki-srf06-cc26xx.a(leds.o)
 .ARM.attributes
                0x0000000000000165       0x33 contiki-srf06-cc26xx.a(leds-arch.o)
 .ARM.attributes
                0x0000000000000198       0x33 contiki-srf06-cc26xx.a(sensortag-senso)
 .ARM.attributes
                0x00000000000001cb       0x33 contiki-srf06-cc26xx.a(bmp-280-sensor.)
 .ARM.attributes
                0x00000000000001fe       0x33 contiki-srf06-cc26xx.a(tmp-007-sensor.)
 .ARM.attributes
                0x0000000000000231       0x33 contiki-srf06-cc26xx.a(opt-3001-sensor)
 .ARM.attributes
                0x0000000000000264       0x33 contiki-srf06-cc26xx.a(hdc-1000-sensor)
 .ARM.attributes
                0x0000000000000297       0x33 contiki-srf06-cc26xx.a(mpu-9250-sensor)
 .ARM.attributes
                0x00000000000002ca       0x33 contiki-srf06-cc26xx.a(button-sensor.o)
 .ARM.attributes
                0x00000000000002fd       0x33 contiki-srf06-cc26xx.a(reed-relay.o)
 .ARM.attributes
                0x0000000000000330       0x33 contiki-srf06-cc26xx.a(buzzer.o)
 .ARM.attributes
                0x0000000000000363       0x33 contiki-srf06-cc26xx.a(board.o)
 .ARM.attributes
                0x0000000000000396       0x33 contiki-srf06-cc26xx.a(board-i2c.o)
 .ARM.attributes
                0x00000000000003c9       0x33 contiki-srf06-cc26xx.a(cfs-coffee.o)
 .ARM.attributes
                0x00000000000003fc       0x33 contiki-srf06-cc26xx.a(xmem.o)
 .ARM.attributes
                0x000000000000042f       0x33 contiki-srf06-cc26xx.a(clock.o)
 .ARM.attributes
                0x0000000000000462       0x33 contiki-srf06-cc26xx.a(rtimer-arch.o)
 .ARM.attributes
                0x0000000000000495       0x33 contiki-srf06-cc26xx.a(soc-rtc.o)
 .ARM.attributes
                0x00000000000004c8       0x33 contiki-srf06-cc26xx.a(contiki-watchdo)
 .ARM.attributes
                0x00000000000004fb       0x33 contiki-srf06-cc26xx.a(putchar.o)
 .ARM.attributes
                0x000000000000052e       0x33 contiki-srf06-cc26xx.a(ieee-addr.o)
 .ARM.attributes
                0x0000000000000561       0x33 contiki-srf06-cc26xx.a(batmon-sensor.o)
 .ARM.attributes
                0x0000000000000594       0x33 contiki-srf06-cc26xx.a(cc26xx-uart.o)
 .ARM.attributes
                0x00000000000005c7       0x33 contiki-srf06-cc26xx.a(lpm.o)
 .ARM.attributes
                0x00000000000005fa       0x33 contiki-srf06-cc26xx.a(gpio-interrupt.)
 .ARM.attributes
                0x000000000000062d       0x33 contiki-srf06-cc26xx.a(oscillators.o)
 .ARM.attributes
                0x0000000000000660       0x33 contiki-srf06-cc26xx.a(ieee-mode.o)
 .ARM.attributes
                0x0000000000000693       0x33 contiki-srf06-cc26xx.a(random.o)
 .ARM.attributes
                0x00000000000006c6       0x33 contiki-srf06-cc26xx.a(soc-trng.o)
 .ARM.attributes
                0x00000000000006f9       0x33 contiki-srf06-cc26xx.a(dbg-printf.o)
 .ARM.attributes
                0x000000000000072c       0x33 contiki-srf06-cc26xx.a(strformat.o)
 .ARM.attributes
                0x000000000000075f       0x33 contiki-srf06-cc26xx.a(autostart.o)
 .ARM.attributes
                0x0000000000000792       0x33 contiki-srf06-cc26xx.a(energest.o)
 .ARM.attributes
                0x00000000000007c5       0x33 contiki-srf06-cc26xx.a(ctimer.o)
 .ARM.attributes
                0x00000000000007f8       0x33 contiki-srf06-cc26xx.a(etimer.o)
 .ARM.attributes
                0x000000000000082b       0x33 contiki-srf06-cc26xx.a(process.o)
 .ARM.attributes
                0x000000000000085e       0x33 contiki-srf06-cc26xx.a(rtimer.o)
 .ARM.attributes
                0x0000000000000891       0x33 contiki-srf06-cc26xx.a(timer.o)
 .ARM.attributes
                0x00000000000008c4       0x33 contiki-srf06-cc26xx.a(serial-line.o)
 .ARM.attributes
                0x00000000000008f7       0x33 contiki-srf06-cc26xx.a(list.o)
 .ARM.attributes
                0x000000000000092a       0x33 contiki-srf06-cc26xx.a(ringbuf.o)
 .ARM.attributes
                0x000000000000095d       0x33 contiki-srf06-cc26xx.a(broadcast.o)
 .ARM.attributes
                0x0000000000000990       0x33 contiki-srf06-cc26xx.a(channel.o)
 .ARM.attributes
                0x00000000000009c3       0x33 contiki-srf06-cc26xx.a(rime.o)
 .ARM.attributes
                0x00000000000009f6       0x33 contiki-srf06-cc26xx.a(pwr_ctrl.o)
 .ARM.attributes
                0x0000000000000a29       0x33 contiki-srf06-cc26xx.a(setup.o)
 .ARM.attributes
                0x0000000000000a5c       0x33 contiki-srf06-cc26xx.a(aon_rtc.o)
 .ARM.attributes
                0x0000000000000a8f       0x33 contiki-srf06-cc26xx.a(osc.o)
 .ARM.attributes
                0x0000000000000ac2       0x33 contiki-srf06-cc26xx.a(aon_batmon.o)
 .ARM.attributes
                0x0000000000000af5       0x33 contiki-srf06-cc26xx.a(sys_ctrl.o)
 .ARM.attributes
                0x0000000000000b28       0x33 contiki-srf06-cc26xx.a(adi.o)
 .ARM.attributes
                0x0000000000000b5b       0x33 contiki-srf06-cc26xx.a(cpu.o)
 .ARM.attributes
                0x0000000000000b8e       0x33 contiki-srf06-cc26xx.a(ddi.o)
 .ARM.attributes
                0x0000000000000bc1       0x33 contiki-srf06-cc26xx.a(chipinfo.o)
 .ARM.attributes
                0x0000000000000bf4       0x33 contiki-srf06-cc26xx.a(trng.o)
 .ARM.attributes
                0x0000000000000c27       0x33 contiki-srf06-cc26xx.a(queuebuf.o)
 .ARM.attributes
                0x0000000000000c5a       0x33 contiki-srf06-cc26xx.a(packetbuf.o)
 .ARM.attributes
                0x0000000000000c8d       0x33 contiki-srf06-cc26xx.a(netstack.o)
 .ARM.attributes
                0x0000000000000cc0       0x33 contiki-srf06-cc26xx.a(linkaddr.o)
 .ARM.attributes
                0x0000000000000cf3       0x33 contiki-srf06-cc26xx.a(csma.o)
 .ARM.attributes
                0x0000000000000d26       0x33 contiki-srf06-cc26xx.a(mac.o)
 .ARM.attributes
                0x0000000000000d59       0x33 contiki-srf06-cc26xx.a(nullrdc.o)
 .ARM.attributes
                0x0000000000000d8c       0x33 contiki-srf06-cc26xx.a(nullsec.o)
 .ARM.attributes
                0x0000000000000dbf       0x33 contiki-srf06-cc26xx.a(sensor-common.o)
 .ARM.attributes
                0x0000000000000df2       0x33 contiki-srf06-cc26xx.a(ext-flash.o)
 .ARM.attributes
                0x0000000000000e25       0x33 contiki-srf06-cc26xx.a(board-spi.o)
 .ARM.attributes
                0x0000000000000e58       0x33 contiki-srf06-cc26xx.a(aux-ctrl.o)
 .ARM.attributes
                0x0000000000000e8b       0x33 contiki-srf06-cc26xx.a(rf-core.o)
 .ARM.attributes
                0x0000000000000ebe       0x33 contiki-srf06-cc26xx.a(rf-ble.o)
 .ARM.attributes
                0x0000000000000ef1       0x33 contiki-srf06-cc26xx.a(memb.o)
 .ARM.attributes
                0x0000000000000f24       0x33 contiki-srf06-cc26xx.a(broadcast-annou)
 .ARM.attributes
                0x0000000000000f57       0x33 contiki-srf06-cc26xx.a(abc.o)
 .ARM.attributes
                0x0000000000000f8a       0x33 contiki-srf06-cc26xx.a(announcement.o)
 .ARM.attributes
                0x0000000000000fbd       0x33 contiki-srf06-cc26xx.a(chameleon.o)
 .ARM.attributes
                0x0000000000000ff0       0x33 contiki-srf06-cc26xx.a(setup_rom.o)
 .ARM.attributes
                0x0000000000001023       0x33 contiki-srf06-cc26xx.a(mac-sequence.o)
 .ARM.attributes
                0x0000000000001056       0x33 contiki-srf06-cc26xx.a(framer-802154.o)
 .ARM.attributes
                0x0000000000001089       0x33 contiki-srf06-cc26xx.a(chameleon-bitop)
 .ARM.attributes
                0x00000000000010bc       0x33 contiki-srf06-cc26xx.a(frame802154.o)
 .ARM.attributes
                0x00000000000010ef       0x2d /usr/lib/gcc/arm-none-eabi/4.9.3/../../../arm-none-eabi/lib/armv7-m/libm.a(lib_a-w_exp2.o)
 .ARM.attributes
                0x000000000000111c       0x2d /usr/lib/gcc/arm-none-eabi/4.9.3/../../../arm-none-eabi/lib/armv7-m/libm.a(lib_a-w_pow.o)
 .ARM.attributes
                0x0000000000001149       0x2d /usr/lib/gcc/arm-none-eabi/4.9.3/../../../arm-none-eabi/lib/armv7-m/libm.a(lib_a-e_pow.o)
 .ARM.attributes
                0x0000000000001176       0x2d /usr/lib/gcc/arm-none-eabi/4.9.3/../../../arm-none-eabi/lib/armv7-m/libm.a(lib_a-e_sqrt.o)
 .ARM.attributes
                0x00000000000011a3       0x2d /usr/lib/gcc/arm-none-eabi/4.9.3/../../../arm-none-eabi/lib/armv7-m/libm.a(lib_a-s_fabs.o)
 .ARM.attributes
                0x00000000000011d0       0x2d /usr/lib/gcc/arm-none-eabi/4.9.3/../../../arm-none-eabi/lib/armv7-m/libm.a(lib_a-s_finite.o)
 .ARM.attributes
                0x00000000000011fd       0x2d /usr/lib/gcc/arm-none-eabi/4.9.3/../../../arm-none-eabi/lib/armv7-m/libm.a(lib_a-s_fpclassify.o)
 .ARM.attributes
                0x000000000000122a       0x2d /usr/lib/gcc/arm-none-eabi/4.9.3/../../../arm-none-eabi/lib/armv7-m/libm.a(lib_a-s_lib_ver.o)
 .ARM.attributes
                0x0000000000001257       0x2d /usr/lib/gcc/arm-none-eabi/4.9.3/../../../arm-none-eabi/lib/armv7-m/libm.a(lib_a-s_matherr.o)
 .ARM.attributes
                0x0000000000001284       0x2d /usr/lib/gcc/arm-none-eabi/4.9.3/../../../arm-none-eabi/lib/armv7-m/libm.a(lib_a-s_nan.o)
 .ARM.attributes
                0x00000000000012b1       0x2d /usr/lib/gcc/arm-none-eabi/4.9.3/../../../arm-none-eabi/lib/armv7-m/libm.a(lib_a-s_rint.o)
 .ARM.attributes
                0x00000000000012de       0x2d /usr/lib/gcc/arm-none-eabi/4.9.3/../../../arm-none-eabi/lib/armv7-m/libm.a(lib_a-s_scalbn.o)
 .ARM.attributes
                0x000000000000130b       0x2d /usr/lib/gcc/arm-none-eabi/4.9.3/../../../arm-none-eabi/lib/armv7-m/libm.a(lib_a-s_copysign.o)
 .ARM.attributes
                0x0000000000001338       0x1d /usr/lib/gcc/arm-none-eabi/4.9.3/armv7-m/libgcc.a(_arm_addsubdf3.o)
 .ARM.attributes
                0x0000000000001355       0x1d /usr/lib/gcc/arm-none-eabi/4.9.3/armv7-m/libgcc.a(_arm_muldivdf3.o)
 .ARM.attributes
                0x0000000000001372       0x1d /usr/lib/gcc/arm-none-eabi/4.9.3/armv7-m/libgcc.a(_arm_cmpdf2.o)
 .ARM.attributes
                0x000000000000138f       0x1d /usr/lib/gcc/arm-none-eabi/4.9.3/armv7-m/libgcc.a(_arm_truncdfsf2.o)
 .ARM.attributes
                0x00000000000013ac       0x1d /usr/lib/gcc/arm-none-eabi/4.9.3/armv7-m/libgcc.a(_arm_addsubsf3.o)
 .ARM.attributes
                0x00000000000013c9       0x1d /usr/lib/gcc/arm-none-eabi/4.9.3/armv7-m/libgcc.a(_arm_muldivsf3.o)
 .ARM.attributes
                0x00000000000013e6       0x1d /usr/lib/gcc/arm-none-eabi/4.9.3/armv7-m/libgcc.a(_arm_fixsfsi.o)
 .ARM.attributes
                0x0000000000001403       0x1d /usr/lib/gcc/arm-none-eabi/4.9.3/armv7-m/libgcc.a(_aeabi_uldivmod.o)
 .ARM.attributes
                0x0000000000001420       0x2d /usr/lib/gcc/arm-none-eabi/4.9.3/armv7-m/libgcc.a(bpabi.o)
 .ARM.attributes
                0x000000000000144d       0x1d /usr/lib/gcc/arm-none-eabi/4.9.3/armv7-m/libgcc.a(_dvmd_tls.o)
 .ARM.attributes
                0x000000000000146a       0x2d /usr/lib/gcc/arm-none-eabi/4.9.3/armv7-m/libgcc.a(_divdi3.o)
 .ARM.attributes
                0x0000000000001497       0x2d /usr/lib/gcc/arm-none-eabi/4.9.3/armv7-m/libgcc.a(_udivdi3.o)
 .ARM.attributes
                0x00000000000014c4       0x2d /usr/lib/gcc/arm-none-eabi/4.9.3/../../../arm-none-eabi/lib/armv7-m/libc.a(lib_a-atoi.o)
 .ARM.attributes
                0x00000000000014f1       0x2d /usr/lib/gcc/arm-none-eabi/4.9.3/../../../arm-none-eabi/lib/armv7-m/libc.a(lib_a-errno.o)
 .ARM.attributes
                0x000000000000151e       0x2d /usr/lib/gcc/arm-none-eabi/4.9.3/../../../arm-none-eabi/lib/armv7-m/libc.a(lib_a-impure.o)
 .ARM.attributes
                0x000000000000154b       0x2d /usr/lib/gcc/arm-none-eabi/4.9.3/../../../arm-none-eabi/lib/armv7-m/libc.a(lib_a-memcmp.o)
 .ARM.attributes
                0x0000000000001578       0x1b /usr/lib/gcc/arm-none-eabi/4.9.3/../../../arm-none-eabi/lib/armv7-m/libc.a(lib_a-memcpy.o)
 .ARM.attributes
                0x0000000000001593       0x2d /usr/lib/gcc/arm-none-eabi/4.9.3/../../../arm-none-eabi/lib/armv7-m/libc.a(lib_a-memset.o)
 .ARM.attributes
                0x00000000000015c0       0x1b /usr/lib/gcc/arm-none-eabi/4.9.3/../../../arm-none-eabi/lib/armv7-m/libc.a(lib_a-strcmp.o)
 .ARM.attributes
                0x00000000000015db       0x2d /usr/lib/gcc/arm-none-eabi/4.9.3/../../../arm-none-eabi/lib/armv7-m/libc.a(lib_a-strlen.o)
 .ARM.attributes
                0x0000000000001608       0x2d /usr/lib/gcc/arm-none-eabi/4.9.3/../../../arm-none-eabi/lib/armv7-m/libc.a(lib_a-strncpy.o)
 .ARM.attributes
                0x0000000000001635       0x2d /usr/lib/gcc/arm-none-eabi/4.9.3/../../../arm-none-eabi/lib/armv7-m/libc.a(lib_a-strtol.o)
 .ARM.attributes
                0x0000000000001662       0x2d /usr/lib/gcc/arm-none-eabi/4.9.3/../../../arm-none-eabi/lib/armv7-m/libc.a(lib_a-ctype_.o)

.debug_info     0x0000000000000000     0x55d2
 .debug_info    0x0000000000000000       0xd6 /usr/lib/gcc/arm-none-eabi/4.9.3/../../../arm-none-eabi/lib/armv7-m/libm.a(lib_a-w_exp2.o)
 .debug_info    0x00000000000000d6      0x2e4 /usr/lib/gcc/arm-none-eabi/4.9.3/../../../arm-none-eabi/lib/armv7-m/libm.a(lib_a-w_pow.o)
 .debug_info    0x00000000000003ba      0x759 /usr/lib/gcc/arm-none-eabi/4.9.3/../../../arm-none-eabi/lib/armv7-m/libm.a(lib_a-e_pow.o)
 .debug_info    0x0000000000000b13      0x22d /usr/lib/gcc/arm-none-eabi/4.9.3/../../../arm-none-eabi/lib/armv7-m/libm.a(lib_a-e_sqrt.o)
 .debug_info    0x0000000000000d40      0x13a /usr/lib/gcc/arm-none-eabi/4.9.3/../../../arm-none-eabi/lib/armv7-m/libm.a(lib_a-s_fabs.o)
 .debug_info    0x0000000000000e7a       0xd3 /usr/lib/gcc/arm-none-eabi/4.9.3/../../../arm-none-eabi/lib/armv7-m/libm.a(lib_a-s_finite.o)
 .debug_info    0x0000000000000f4d       0xd3 /usr/lib/gcc/arm-none-eabi/4.9.3/../../../arm-none-eabi/lib/armv7-m/libm.a(lib_a-s_fpclassify.o)
 .debug_info    0x0000000000001020       0xbe /usr/lib/gcc/arm-none-eabi/4.9.3/../../../arm-none-eabi/lib/armv7-m/libm.a(lib_a-s_lib_ver.o)
 .debug_info    0x00000000000010de      0x129 /usr/lib/gcc/arm-none-eabi/4.9.3/../../../arm-none-eabi/lib/armv7-m/libm.a(lib_a-s_matherr.o)
 .debug_info    0x0000000000001207       0xd2 /usr/lib/gcc/arm-none-eabi/4.9.3/../../../arm-none-eabi/lib/armv7-m/libm.a(lib_a-s_nan.o)
 .debug_info    0x00000000000012d9      0x20a /usr/lib/gcc/arm-none-eabi/4.9.3/../../../arm-none-eabi/lib/armv7-m/libm.a(lib_a-s_rint.o)
 .debug_info    0x00000000000014e3      0x269 /usr/lib/gcc/arm-none-eabi/4.9.3/../../../arm-none-eabi/lib/armv7-m/libm.a(lib_a-s_scalbn.o)
 .debug_info    0x000000000000174c      0x151 /usr/lib/gcc/arm-none-eabi/4.9.3/../../../arm-none-eabi/lib/armv7-m/libm.a(lib_a-s_copysign.o)
 .debug_info    0x000000000000189d       0xba /usr/lib/gcc/arm-none-eabi/4.9.3/armv7-m/libgcc.a(_arm_addsubdf3.o)
 .debug_info    0x0000000000001957       0xba /usr/lib/gcc/arm-none-eabi/4.9.3/armv7-m/libgcc.a(_arm_muldivdf3.o)
 .debug_info    0x0000000000001a11       0xba /usr/lib/gcc/arm-none-eabi/4.9.3/armv7-m/libgcc.a(_arm_cmpdf2.o)
 .debug_info    0x0000000000001acb       0xba /usr/lib/gcc/arm-none-eabi/4.9.3/armv7-m/libgcc.a(_arm_truncdfsf2.o)
 .debug_info    0x0000000000001b85       0xba /usr/lib/gcc/arm-none-eabi/4.9.3/armv7-m/libgcc.a(_arm_addsubsf3.o)
 .debug_info    0x0000000000001c3f       0xba /usr/lib/gcc/arm-none-eabi/4.9.3/armv7-m/libgcc.a(_arm_muldivsf3.o)
 .debug_info    0x0000000000001cf9       0xba /usr/lib/gcc/arm-none-eabi/4.9.3/armv7-m/libgcc.a(_arm_fixsfsi.o)
 .debug_info    0x0000000000001db3       0xb5 /usr/lib/gcc/arm-none-eabi/4.9.3/armv7-m/libgcc.a(_aeabi_uldivmod.o)
 .debug_info    0x0000000000001e68      0x164 /usr/lib/gcc/arm-none-eabi/4.9.3/armv7-m/libgcc.a(bpabi.o)
 .debug_info    0x0000000000001fcc       0xb9 /usr/lib/gcc/arm-none-eabi/4.9.3/armv7-m/libgcc.a(_dvmd_tls.o)
 .debug_info    0x0000000000002085      0x5bc /usr/lib/gcc/arm-none-eabi/4.9.3/armv7-m/libgcc.a(_divdi3.o)
 .debug_info    0x0000000000002641      0x57c /usr/lib/gcc/arm-none-eabi/4.9.3/armv7-m/libgcc.a(_udivdi3.o)
 .debug_info    0x0000000000002bbd      0x941 /usr/lib/gcc/arm-none-eabi/4.9.3/../../../arm-none-eabi/lib/armv7-m/libc.a(lib_a-atoi.o)
 .debug_info    0x00000000000034fe      0x889 /usr/lib/gcc/arm-none-eabi/4.9.3/../../../arm-none-eabi/lib/armv7-m/libc.a(lib_a-errno.o)
 .debug_info    0x0000000000003d87      0x894 /usr/lib/gcc/arm-none-eabi/4.9.3/../../../arm-none-eabi/lib/armv7-m/libc.a(lib_a-impure.o)
 .debug_info    0x000000000000461b      0x113 /usr/lib/gcc/arm-none-eabi/4.9.3/../../../arm-none-eabi/lib/armv7-m/libc.a(lib_a-memcmp.o)
 .debug_info    0x000000000000472e       0xcd /usr/lib/gcc/arm-none-eabi/4.9.3/../../../arm-none-eabi/lib/armv7-m/libc.a(lib_a-memcpy.o)
 .debug_info    0x00000000000047fb      0x117 /usr/lib/gcc/arm-none-eabi/4.9.3/../../../arm-none-eabi/lib/armv7-m/libc.a(lib_a-memset.o)
 .debug_info    0x0000000000004912       0xcd /usr/lib/gcc/arm-none-eabi/4.9.3/../../../arm-none-eabi/lib/armv7-m/libc.a(lib_a-strcmp.o)
 .debug_info    0x00000000000049df       0xb5 /usr/lib/gcc/arm-none-eabi/4.9.3/../../../arm-none-eabi/lib/armv7-m/libc.a(lib_a-strlen.o)
 .debug_info    0x0000000000004a94      0x128 /usr/lib/gcc/arm-none-eabi/4.9.3/../../../arm-none-eabi/lib/armv7-m/libc.a(lib_a-strncpy.o)
 .debug_info    0x0000000000004bbc      0x9a7 /usr/lib/gcc/arm-none-eabi/4.9.3/../../../arm-none-eabi/lib/armv7-m/libc.a(lib_a-strtol.o)
 .debug_info    0x0000000000005563       0x6f /usr/lib/gcc/arm-none-eabi/4.9.3/../../../arm-none-eabi/lib/armv7-m/libc.a(lib_a-ctype_.o)

.debug_abbrev   0x0000000000000000     0x18a7
 .debug_abbrev  0x0000000000000000       0x7d /usr/lib/gcc/arm-none-eabi/4.9.3/../../../arm-none-eabi/lib/armv7-m/libm.a(lib_a-w_exp2.o)
 .debug_abbrev  0x000000000000007d      0x14d /usr/lib/gcc/arm-none-eabi/4.9.3/../../../arm-none-eabi/lib/armv7-m/libm.a(lib_a-w_pow.o)
 .debug_abbrev  0x00000000000001ca      0x1e9 /usr/lib/gcc/arm-none-eabi/4.9.3/../../../arm-none-eabi/lib/armv7-m/libm.a(lib_a-e_pow.o)
 .debug_abbrev  0x00000000000003b3      0x109 /usr/lib/gcc/arm-none-eabi/4.9.3/../../../arm-none-eabi/lib/armv7-m/libm.a(lib_a-e_sqrt.o)
 .debug_abbrev  0x00000000000004bc       0xbb /usr/lib/gcc/arm-none-eabi/4.9.3/../../../arm-none-eabi/lib/armv7-m/libm.a(lib_a-s_fabs.o)
 .debug_abbrev  0x0000000000000577       0x6d /usr/lib/gcc/arm-none-eabi/4.9.3/../../../arm-none-eabi/lib/armv7-m/libm.a(lib_a-s_finite.o)
 .debug_abbrev  0x00000000000005e4       0x6d /usr/lib/gcc/arm-none-eabi/4.9.3/../../../arm-none-eabi/lib/armv7-m/libm.a(lib_a-s_fpclassify.o)
 .debug_abbrev  0x0000000000000651       0x4f /usr/lib/gcc/arm-none-eabi/4.9.3/../../../arm-none-eabi/lib/armv7-m/libm.a(lib_a-s_lib_ver.o)
 .debug_abbrev  0x00000000000006a0       0x9a /usr/lib/gcc/arm-none-eabi/4.9.3/../../../arm-none-eabi/lib/armv7-m/libm.a(lib_a-s_matherr.o)
 .debug_abbrev  0x000000000000073a       0x72 /usr/lib/gcc/arm-none-eabi/4.9.3/../../../arm-none-eabi/lib/armv7-m/libm.a(lib_a-s_nan.o)
 .debug_abbrev  0x00000000000007ac      0x12b /usr/lib/gcc/arm-none-eabi/4.9.3/../../../arm-none-eabi/lib/armv7-m/libm.a(lib_a-s_rint.o)
 .debug_abbrev  0x00000000000008d7      0x138 /usr/lib/gcc/arm-none-eabi/4.9.3/../../../arm-none-eabi/lib/armv7-m/libm.a(lib_a-s_scalbn.o)
 .debug_abbrev  0x0000000000000a0f       0xe6 /usr/lib/gcc/arm-none-eabi/4.9.3/../../../arm-none-eabi/lib/armv7-m/libm.a(lib_a-s_copysign.o)
 .debug_abbrev  0x0000000000000af5       0x14 /usr/lib/gcc/arm-none-eabi/4.9.3/armv7-m/libgcc.a(_arm_addsubdf3.o)
 .debug_abbrev  0x0000000000000b09       0x14 /usr/lib/gcc/arm-none-eabi/4.9.3/armv7-m/libgcc.a(_arm_muldivdf3.o)
 .debug_abbrev  0x0000000000000b1d       0x14 /usr/lib/gcc/arm-none-eabi/4.9.3/armv7-m/libgcc.a(_arm_cmpdf2.o)
 .debug_abbrev  0x0000000000000b31       0x14 /usr/lib/gcc/arm-none-eabi/4.9.3/armv7-m/libgcc.a(_arm_truncdfsf2.o)
 .debug_abbrev  0x0000000000000b45       0x14 /usr/lib/gcc/arm-none-eabi/4.9.3/armv7-m/libgcc.a(_arm_addsubsf3.o)
 .debug_abbrev  0x0000000000000b59       0x14 /usr/lib/gcc/arm-none-eabi/4.9.3/armv7-m/libgcc.a(_arm_muldivsf3.o)
 .debug_abbrev  0x0000000000000b6d       0x14 /usr/lib/gcc/arm-none-eabi/4.9.3/armv7-m/libgcc.a(_arm_fixsfsi.o)
 .debug_abbrev  0x0000000000000b81       0x14 /usr/lib/gcc/arm-none-eabi/4.9.3/armv7-m/libgcc.a(_aeabi_uldivmod.o)
 .debug_abbrev  0x0000000000000b95       0xb7 /usr/lib/gcc/arm-none-eabi/4.9.3/armv7-m/libgcc.a(bpabi.o)
 .debug_abbrev  0x0000000000000c4c       0x14 /usr/lib/gcc/arm-none-eabi/4.9.3/armv7-m/libgcc.a(_dvmd_tls.o)
 .debug_abbrev  0x0000000000000c60      0x169 /usr/lib/gcc/arm-none-eabi/4.9.3/armv7-m/libgcc.a(_divdi3.o)
 .debug_abbrev  0x0000000000000dc9      0x154 /usr/lib/gcc/arm-none-eabi/4.9.3/armv7-m/libgcc.a(_udivdi3.o)
 .debug_abbrev  0x0000000000000f1d      0x1d1 /usr/lib/gcc/arm-none-eabi/4.9.3/../../../arm-none-eabi/lib/armv7-m/libc.a(lib_a-atoi.o)
 .debug_abbrev  0x00000000000010ee      0x18f /usr/lib/gcc/arm-none-eabi/4.9.3/../../../arm-none-eabi/lib/armv7-m/libc.a(lib_a-errno.o)
 .debug_abbrev  0x000000000000127d      0x180 /usr/lib/gcc/arm-none-eabi/4.9.3/../../../arm-none-eabi/lib/armv7-m/libc.a(lib_a-impure.o)
 .debug_abbrev  0x00000000000013fd       0x7f /usr/lib/gcc/arm-none-eabi/4.9.3/../../../arm-none-eabi/lib/armv7-m/libc.a(lib_a-memcmp.o)
 .debug_abbrev  0x000000000000147c       0x14 /usr/lib/gcc/arm-none-eabi/4.9.3/../../../arm-none-eabi/lib/armv7-m/libc.a(lib_a-memcpy.o)
 .debug_abbrev  0x0000000000001490       0x9f /usr/lib/gcc/arm-none-eabi/4.9.3/../../../arm-none-eabi/lib/armv7-m/libc.a(lib_a-memset.o)
 .debug_abbrev  0x000000000000152f       0x14 /usr/lib/gcc/arm-none-eabi/4.9.3/../../../arm-none-eabi/lib/armv7-m/libc.a(lib_a-strcmp.o)
 .debug_abbrev  0x0000000000001543       0x70 /usr/lib/gcc/arm-none-eabi/4.9.3/../../../arm-none-eabi/lib/armv7-m/libc.a(lib_a-strlen.o)
 .debug_abbrev  0x00000000000015b3       0x9f /usr/lib/gcc/arm-none-eabi/4.9.3/../../../arm-none-eabi/lib/armv7-m/libc.a(lib_a-strncpy.o)
 .debug_abbrev  0x0000000000001652      0x207 /usr/lib/gcc/arm-none-eabi/4.9.3/../../../arm-none-eabi/lib/armv7-m/libc.a(lib_a-strtol.o)
 .debug_abbrev  0x0000000000001859       0x4e /usr/lib/gcc/arm-none-eabi/4.9.3/../../../arm-none-eabi/lib/armv7-m/libc.a(lib_a-ctype_.o)

.debug_loc      0x0000000000000000     0x40cc
 .debug_loc     0x0000000000000000       0x28 /usr/lib/gcc/arm-none-eabi/4.9.3/../../../arm-none-eabi/lib/armv7-m/libm.a(lib_a-w_exp2.o)
 .debug_loc     0x0000000000000028      0x12c /usr/lib/gcc/arm-none-eabi/4.9.3/../../../arm-none-eabi/lib/armv7-m/libm.a(lib_a-w_pow.o)
 .debug_loc     0x0000000000000154     0x10ae /usr/lib/gcc/arm-none-eabi/4.9.3/../../../arm-none-eabi/lib/armv7-m/libm.a(lib_a-e_pow.o)
 .debug_loc     0x0000000000001202      0x4ce /usr/lib/gcc/arm-none-eabi/4.9.3/../../../arm-none-eabi/lib/armv7-m/libm.a(lib_a-e_sqrt.o)
 .debug_loc     0x00000000000016d0       0x2b /usr/lib/gcc/arm-none-eabi/4.9.3/../../../arm-none-eabi/lib/armv7-m/libm.a(lib_a-s_fabs.o)
 .debug_loc     0x00000000000016fb       0x28 /usr/lib/gcc/arm-none-eabi/4.9.3/../../../arm-none-eabi/lib/armv7-m/libm.a(lib_a-s_finite.o)
 .debug_loc     0x0000000000001723       0xa8 /usr/lib/gcc/arm-none-eabi/4.9.3/../../../arm-none-eabi/lib/armv7-m/libm.a(lib_a-s_fpclassify.o)
 .debug_loc     0x00000000000017cb       0x21 /usr/lib/gcc/arm-none-eabi/4.9.3/../../../arm-none-eabi/lib/armv7-m/libm.a(lib_a-s_matherr.o)
 .debug_loc     0x00000000000017ec       0x21 /usr/lib/gcc/arm-none-eabi/4.9.3/../../../arm-none-eabi/lib/armv7-m/libm.a(lib_a-s_nan.o)
 .debug_loc     0x000000000000180d      0x2bd /usr/lib/gcc/arm-none-eabi/4.9.3/../../../arm-none-eabi/lib/armv7-m/libm.a(lib_a-s_rint.o)
 .debug_loc     0x0000000000001aca      0x1e3 /usr/lib/gcc/arm-none-eabi/4.9.3/../../../arm-none-eabi/lib/armv7-m/libm.a(lib_a-s_scalbn.o)
 .debug_loc     0x0000000000001cad       0x53 /usr/lib/gcc/arm-none-eabi/4.9.3/../../../arm-none-eabi/lib/armv7-m/libm.a(lib_a-s_copysign.o)
 .debug_loc     0x0000000000001d00       0xa0 /usr/lib/gcc/arm-none-eabi/4.9.3/armv7-m/libgcc.a(bpabi.o)
 .debug_loc     0x0000000000001da0      0xdbd /usr/lib/gcc/arm-none-eabi/4.9.3/armv7-m/libgcc.a(_divdi3.o)
 .debug_loc     0x0000000000002b5d      0xd5b /usr/lib/gcc/arm-none-eabi/4.9.3/armv7-m/libgcc.a(_udivdi3.o)
 .debug_loc     0x00000000000038b8       0x63 /usr/lib/gcc/arm-none-eabi/4.9.3/../../../arm-none-eabi/lib/armv7-m/libc.a(lib_a-atoi.o)
 .debug_loc     0x000000000000391b      0x14e /usr/lib/gcc/arm-none-eabi/4.9.3/../../../arm-none-eabi/lib/armv7-m/libc.a(lib_a-memcmp.o)
 .debug_loc     0x0000000000003a69      0x1ae /usr/lib/gcc/arm-none-eabi/4.9.3/../../../arm-none-eabi/lib/armv7-m/libc.a(lib_a-memset.o)
 .debug_loc     0x0000000000003c17       0x21 /usr/lib/gcc/arm-none-eabi/4.9.3/../../../arm-none-eabi/lib/armv7-m/libc.a(lib_a-strlen.o)
 .debug_loc     0x0000000000003c38      0x155 /usr/lib/gcc/arm-none-eabi/4.9.3/../../../arm-none-eabi/lib/armv7-m/libc.a(lib_a-strncpy.o)
 .debug_loc     0x0000000000003d8d      0x33f /usr/lib/gcc/arm-none-eabi/4.9.3/../../../arm-none-eabi/lib/armv7-m/libc.a(lib_a-strtol.o)

.debug_aranges  0x0000000000000000      0x478
 .debug_aranges
                0x0000000000000000       0x20 /usr/lib/gcc/arm-none-eabi/4.9.3/../../../arm-none-eabi/lib/armv7-m/libm.a(lib_a-w_exp2.o)
 .debug_aranges
                0x0000000000000020       0x20 /usr/lib/gcc/arm-none-eabi/4.9.3/../../../arm-none-eabi/lib/armv7-m/libm.a(lib_a-w_pow.o)
 .debug_aranges
                0x0000000000000040       0x20 /usr/lib/gcc/arm-none-eabi/4.9.3/../../../arm-none-eabi/lib/armv7-m/libm.a(lib_a-e_pow.o)
 .debug_aranges
                0x0000000000000060       0x20 /usr/lib/gcc/arm-none-eabi/4.9.3/../../../arm-none-eabi/lib/armv7-m/libm.a(lib_a-e_sqrt.o)
 .debug_aranges
                0x0000000000000080       0x20 /usr/lib/gcc/arm-none-eabi/4.9.3/../../../arm-none-eabi/lib/armv7-m/libm.a(lib_a-s_fabs.o)
 .debug_aranges
                0x00000000000000a0       0x20 /usr/lib/gcc/arm-none-eabi/4.9.3/../../../arm-none-eabi/lib/armv7-m/libm.a(lib_a-s_finite.o)
 .debug_aranges
                0x00000000000000c0       0x20 /usr/lib/gcc/arm-none-eabi/4.9.3/../../../arm-none-eabi/lib/armv7-m/libm.a(lib_a-s_fpclassify.o)
 .debug_aranges
                0x00000000000000e0       0x18 /usr/lib/gcc/arm-none-eabi/4.9.3/../../../arm-none-eabi/lib/armv7-m/libm.a(lib_a-s_lib_ver.o)
 .debug_aranges
                0x00000000000000f8       0x20 /usr/lib/gcc/arm-none-eabi/4.9.3/../../../arm-none-eabi/lib/armv7-m/libm.a(lib_a-s_matherr.o)
 .debug_aranges
                0x0000000000000118       0x20 /usr/lib/gcc/arm-none-eabi/4.9.3/../../../arm-none-eabi/lib/armv7-m/libm.a(lib_a-s_nan.o)
 .debug_aranges
                0x0000000000000138       0x20 /usr/lib/gcc/arm-none-eabi/4.9.3/../../../arm-none-eabi/lib/armv7-m/libm.a(lib_a-s_rint.o)
 .debug_aranges
                0x0000000000000158       0x20 /usr/lib/gcc/arm-none-eabi/4.9.3/../../../arm-none-eabi/lib/armv7-m/libm.a(lib_a-s_scalbn.o)
 .debug_aranges
                0x0000000000000178       0x20 /usr/lib/gcc/arm-none-eabi/4.9.3/../../../arm-none-eabi/lib/armv7-m/libm.a(lib_a-s_copysign.o)
 .debug_aranges
                0x0000000000000198       0x20 /usr/lib/gcc/arm-none-eabi/4.9.3/armv7-m/libgcc.a(_arm_addsubdf3.o)
 .debug_aranges
                0x00000000000001b8       0x20 /usr/lib/gcc/arm-none-eabi/4.9.3/armv7-m/libgcc.a(_arm_muldivdf3.o)
 .debug_aranges
                0x00000000000001d8       0x20 /usr/lib/gcc/arm-none-eabi/4.9.3/armv7-m/libgcc.a(_arm_cmpdf2.o)
 .debug_aranges
                0x00000000000001f8       0x20 /usr/lib/gcc/arm-none-eabi/4.9.3/armv7-m/libgcc.a(_arm_truncdfsf2.o)
 .debug_aranges
                0x0000000000000218       0x20 /usr/lib/gcc/arm-none-eabi/4.9.3/armv7-m/libgcc.a(_arm_addsubsf3.o)
 .debug_aranges
                0x0000000000000238       0x20 /usr/lib/gcc/arm-none-eabi/4.9.3/armv7-m/libgcc.a(_arm_muldivsf3.o)
 .debug_aranges
                0x0000000000000258       0x20 /usr/lib/gcc/arm-none-eabi/4.9.3/armv7-m/libgcc.a(_arm_fixsfsi.o)
 .debug_aranges
                0x0000000000000278       0x20 /usr/lib/gcc/arm-none-eabi/4.9.3/armv7-m/libgcc.a(_aeabi_uldivmod.o)
 .debug_aranges
                0x0000000000000298       0x20 /usr/lib/gcc/arm-none-eabi/4.9.3/armv7-m/libgcc.a(bpabi.o)
 .debug_aranges
                0x00000000000002b8       0x20 /usr/lib/gcc/arm-none-eabi/4.9.3/armv7-m/libgcc.a(_dvmd_tls.o)
 .debug_aranges
                0x00000000000002d8       0x20 /usr/lib/gcc/arm-none-eabi/4.9.3/armv7-m/libgcc.a(_divdi3.o)
 .debug_aranges
                0x00000000000002f8       0x20 /usr/lib/gcc/arm-none-eabi/4.9.3/armv7-m/libgcc.a(_udivdi3.o)
 .debug_aranges
                0x0000000000000318       0x28 /usr/lib/gcc/arm-none-eabi/4.9.3/../../../arm-none-eabi/lib/armv7-m/libc.a(lib_a-atoi.o)
 .debug_aranges
                0x0000000000000340       0x20 /usr/lib/gcc/arm-none-eabi/4.9.3/../../../arm-none-eabi/lib/armv7-m/libc.a(lib_a-errno.o)
 .debug_aranges
                0x0000000000000360       0x18 /usr/lib/gcc/arm-none-eabi/4.9.3/../../../arm-none-eabi/lib/armv7-m/libc.a(lib_a-impure.o)
 .debug_aranges
                0x0000000000000378       0x20 /usr/lib/gcc/arm-none-eabi/4.9.3/../../../arm-none-eabi/lib/armv7-m/libc.a(lib_a-memcmp.o)
 .debug_aranges
                0x0000000000000398       0x20 /usr/lib/gcc/arm-none-eabi/4.9.3/../../../arm-none-eabi/lib/armv7-m/libc.a(lib_a-memcpy.o)
 .debug_aranges
                0x00000000000003b8       0x20 /usr/lib/gcc/arm-none-eabi/4.9.3/../../../arm-none-eabi/lib/armv7-m/libc.a(lib_a-memset.o)
 .debug_aranges
                0x00000000000003d8       0x20 /usr/lib/gcc/arm-none-eabi/4.9.3/../../../arm-none-eabi/lib/armv7-m/libc.a(lib_a-strcmp.o)
 .debug_aranges
                0x00000000000003f8       0x20 /usr/lib/gcc/arm-none-eabi/4.9.3/../../../arm-none-eabi/lib/armv7-m/libc.a(lib_a-strlen.o)
 .debug_aranges
                0x0000000000000418       0x20 /usr/lib/gcc/arm-none-eabi/4.9.3/../../../arm-none-eabi/lib/armv7-m/libc.a(lib_a-strncpy.o)
 .debug_aranges
                0x0000000000000438       0x28 /usr/lib/gcc/arm-none-eabi/4.9.3/../../../arm-none-eabi/lib/armv7-m/libc.a(lib_a-strtol.o)
 .debug_aranges
                0x0000000000000460       0x18 /usr/lib/gcc/arm-none-eabi/4.9.3/../../../arm-none-eabi/lib/armv7-m/libc.a(lib_a-ctype_.o)

.debug_ranges   0x0000000000000000      0x410
 .debug_ranges  0x0000000000000000       0x10 /usr/lib/gcc/arm-none-eabi/4.9.3/../../../arm-none-eabi/lib/armv7-m/libm.a(lib_a-w_exp2.o)
 .debug_ranges  0x0000000000000010       0x10 /usr/lib/gcc/arm-none-eabi/4.9.3/../../../arm-none-eabi/lib/armv7-m/libm.a(lib_a-w_pow.o)
 .debug_ranges  0x0000000000000020       0xb8 /usr/lib/gcc/arm-none-eabi/4.9.3/../../../arm-none-eabi/lib/armv7-m/libm.a(lib_a-e_pow.o)
 .debug_ranges  0x00000000000000d8       0x10 /usr/lib/gcc/arm-none-eabi/4.9.3/../../../arm-none-eabi/lib/armv7-m/libm.a(lib_a-e_sqrt.o)
 .debug_ranges  0x00000000000000e8       0x10 /usr/lib/gcc/arm-none-eabi/4.9.3/../../../arm-none-eabi/lib/armv7-m/libm.a(lib_a-s_fabs.o)
 .debug_ranges  0x00000000000000f8       0x10 /usr/lib/gcc/arm-none-eabi/4.9.3/../../../arm-none-eabi/lib/armv7-m/libm.a(lib_a-s_finite.o)
 .debug_ranges  0x0000000000000108       0x10 /usr/lib/gcc/arm-none-eabi/4.9.3/../../../arm-none-eabi/lib/armv7-m/libm.a(lib_a-s_fpclassify.o)
 .debug_ranges  0x0000000000000118       0x10 /usr/lib/gcc/arm-none-eabi/4.9.3/../../../arm-none-eabi/lib/armv7-m/libm.a(lib_a-s_matherr.o)
 .debug_ranges  0x0000000000000128       0x10 /usr/lib/gcc/arm-none-eabi/4.9.3/../../../arm-none-eabi/lib/armv7-m/libm.a(lib_a-s_nan.o)
 .debug_ranges  0x0000000000000138       0x40 /usr/lib/gcc/arm-none-eabi/4.9.3/../../../arm-none-eabi/lib/armv7-m/libm.a(lib_a-s_rint.o)
 .debug_ranges  0x0000000000000178       0x28 /usr/lib/gcc/arm-none-eabi/4.9.3/../../../arm-none-eabi/lib/armv7-m/libm.a(lib_a-s_scalbn.o)
 .debug_ranges  0x00000000000001a0       0x10 /usr/lib/gcc/arm-none-eabi/4.9.3/../../../arm-none-eabi/lib/armv7-m/libm.a(lib_a-s_copysign.o)
 .debug_ranges  0x00000000000001b0       0xf0 /usr/lib/gcc/arm-none-eabi/4.9.3/armv7-m/libgcc.a(_divdi3.o)
 .debug_ranges  0x00000000000002a0       0xf0 /usr/lib/gcc/arm-none-eabi/4.9.3/armv7-m/libgcc.a(_udivdi3.o)
 .debug_ranges  0x0000000000000390       0x18 /usr/lib/gcc/arm-none-eabi/4.9.3/../../../arm-none-eabi/lib/armv7-m/libc.a(lib_a-atoi.o)
 .debug_ranges  0x00000000000003a8       0x10 /usr/lib/gcc/arm-none-eabi/4.9.3/../../../arm-none-eabi/lib/armv7-m/libc.a(lib_a-errno.o)
 .debug_ranges  0x00000000000003b8       0x10 /usr/lib/gcc/arm-none-eabi/4.9.3/../../../arm-none-eabi/lib/armv7-m/libc.a(lib_a-memcmp.o)
 .debug_ranges  0x00000000000003c8       0x10 /usr/lib/gcc/arm-none-eabi/4.9.3/../../../arm-none-eabi/lib/armv7-m/libc.a(lib_a-memset.o)
 .debug_ranges  0x00000000000003d8       0x10 /usr/lib/gcc/arm-none-eabi/4.9.3/../../../arm-none-eabi/lib/armv7-m/libc.a(lib_a-strlen.o)
 .debug_ranges  0x00000000000003e8       0x10 /usr/lib/gcc/arm-none-eabi/4.9.3/../../../arm-none-eabi/lib/armv7-m/libc.a(lib_a-strncpy.o)
 .debug_ranges  0x00000000000003f8       0x18 /usr/lib/gcc/arm-none-eabi/4.9.3/../../../arm-none-eabi/lib/armv7-m/libc.a(lib_a-strtol.o)

.debug_line     0x0000000000000000     0x26f1
 .debug_line    0x0000000000000000       0xb2 /usr/lib/gcc/arm-none-eabi/4.9.3/../../../arm-none-eabi/lib/armv7-m/libm.a(lib_a-w_exp2.o)
 .debug_line    0x00000000000000b2      0x226 /usr/lib/gcc/arm-none-eabi/4.9.3/../../../arm-none-eabi/lib/armv7-m/libm.a(lib_a-w_pow.o)
 .debug_line    0x00000000000002d8      0x318 /usr/lib/gcc/arm-none-eabi/4.9.3/../../../arm-none-eabi/lib/armv7-m/libm.a(lib_a-e_pow.o)
 .debug_line    0x00000000000005f0      0x1a5 /usr/lib/gcc/arm-none-eabi/4.9.3/../../../arm-none-eabi/lib/armv7-m/libm.a(lib_a-e_sqrt.o)
 .debug_line    0x0000000000000795      0x151 /usr/lib/gcc/arm-none-eabi/4.9.3/../../../arm-none-eabi/lib/armv7-m/libm.a(lib_a-s_fabs.o)
 .debug_line    0x00000000000008e6      0x11b /usr/lib/gcc/arm-none-eabi/4.9.3/../../../arm-none-eabi/lib/armv7-m/libm.a(lib_a-s_finite.o)
 .debug_line    0x0000000000000a01      0x149 /usr/lib/gcc/arm-none-eabi/4.9.3/../../../arm-none-eabi/lib/armv7-m/libm.a(lib_a-s_fpclassify.o)
 .debug_line    0x0000000000000b4a       0xa5 /usr/lib/gcc/arm-none-eabi/4.9.3/../../../arm-none-eabi/lib/armv7-m/libm.a(lib_a-s_lib_ver.o)
 .debug_line    0x0000000000000bef       0xb6 /usr/lib/gcc/arm-none-eabi/4.9.3/../../../arm-none-eabi/lib/armv7-m/libm.a(lib_a-s_matherr.o)
 .debug_line    0x0000000000000ca5       0xb3 /usr/lib/gcc/arm-none-eabi/4.9.3/../../../arm-none-eabi/lib/armv7-m/libm.a(lib_a-s_nan.o)
 .debug_line    0x0000000000000d58      0x184 /usr/lib/gcc/arm-none-eabi/4.9.3/../../../arm-none-eabi/lib/armv7-m/libm.a(lib_a-s_rint.o)
 .debug_line    0x0000000000000edc      0x155 /usr/lib/gcc/arm-none-eabi/4.9.3/../../../arm-none-eabi/lib/armv7-m/libm.a(lib_a-s_scalbn.o)
 .debug_line    0x0000000000001031      0x12a /usr/lib/gcc/arm-none-eabi/4.9.3/../../../arm-none-eabi/lib/armv7-m/libm.a(lib_a-s_copysign.o)
 .debug_line    0x000000000000115b      0x176 /usr/lib/gcc/arm-none-eabi/4.9.3/armv7-m/libgcc.a(_arm_addsubdf3.o)
 .debug_line    0x00000000000012d1      0x19a /usr/lib/gcc/arm-none-eabi/4.9.3/armv7-m/libgcc.a(_arm_muldivdf3.o)
 .debug_line    0x000000000000146b       0xb7 /usr/lib/gcc/arm-none-eabi/4.9.3/armv7-m/libgcc.a(_arm_cmpdf2.o)
 .debug_line    0x0000000000001522       0x8b /usr/lib/gcc/arm-none-eabi/4.9.3/armv7-m/libgcc.a(_arm_truncdfsf2.o)
 .debug_line    0x00000000000015ad      0x117 /usr/lib/gcc/arm-none-eabi/4.9.3/armv7-m/libgcc.a(_arm_addsubsf3.o)
 .debug_line    0x00000000000016c4      0x13a /usr/lib/gcc/arm-none-eabi/4.9.3/armv7-m/libgcc.a(_arm_muldivsf3.o)
 .debug_line    0x00000000000017fe       0x77 /usr/lib/gcc/arm-none-eabi/4.9.3/armv7-m/libgcc.a(_arm_fixsfsi.o)
 .debug_line    0x0000000000001875       0x62 /usr/lib/gcc/arm-none-eabi/4.9.3/armv7-m/libgcc.a(_aeabi_uldivmod.o)
 .debug_line    0x00000000000018d7       0x64 /usr/lib/gcc/arm-none-eabi/4.9.3/armv7-m/libgcc.a(bpabi.o)
 .debug_line    0x000000000000193b       0x5e /usr/lib/gcc/arm-none-eabi/4.9.3/armv7-m/libgcc.a(_dvmd_tls.o)
 .debug_line    0x0000000000001999       0xe1 /usr/lib/gcc/arm-none-eabi/4.9.3/armv7-m/libgcc.a(_divdi3.o)
 .debug_line    0x0000000000001a7a       0xd3 /usr/lib/gcc/arm-none-eabi/4.9.3/armv7-m/libgcc.a(_udivdi3.o)
 .debug_line    0x0000000000001b4d      0x168 /usr/lib/gcc/arm-none-eabi/4.9.3/../../../arm-none-eabi/lib/armv7-m/libc.a(lib_a-atoi.o)
 .debug_line    0x0000000000001cb5      0x10c /usr/lib/gcc/arm-none-eabi/4.9.3/../../../arm-none-eabi/lib/armv7-m/libc.a(lib_a-errno.o)
 .debug_line    0x0000000000001dc1       0xf1 /usr/lib/gcc/arm-none-eabi/4.9.3/../../../arm-none-eabi/lib/armv7-m/libc.a(lib_a-impure.o)
 .debug_line    0x0000000000001eb2      0x10e /usr/lib/gcc/arm-none-eabi/4.9.3/../../../arm-none-eabi/lib/armv7-m/libc.a(lib_a-memcmp.o)
 .debug_line    0x0000000000001fc0       0xbb /usr/lib/gcc/arm-none-eabi/4.9.3/../../../arm-none-eabi/lib/armv7-m/libc.a(lib_a-memcpy.o)
 .debug_line    0x000000000000207b      0x119 /usr/lib/gcc/arm-none-eabi/4.9.3/../../../arm-none-eabi/lib/armv7-m/libc.a(lib_a-memset.o)
 .debug_line    0x0000000000002194      0x100 /usr/lib/gcc/arm-none-eabi/4.9.3/../../../arm-none-eabi/lib/armv7-m/libc.a(lib_a-strcmp.o)
 .debug_line    0x0000000000002294       0xf2 /usr/lib/gcc/arm-none-eabi/4.9.3/../../../arm-none-eabi/lib/armv7-m/libc.a(lib_a-strlen.o)
 .debug_line    0x0000000000002386      0x114 /usr/lib/gcc/arm-none-eabi/4.9.3/../../../arm-none-eabi/lib/armv7-m/libc.a(lib_a-strncpy.o)
 .debug_line    0x000000000000249a      0x1e5 /usr/lib/gcc/arm-none-eabi/4.9.3/../../../arm-none-eabi/lib/armv7-m/libc.a(lib_a-strtol.o)
 .debug_line    0x000000000000267f       0x72 /usr/lib/gcc/arm-none-eabi/4.9.3/../../../arm-none-eabi/lib/armv7-m/libc.a(lib_a-ctype_.o)

.debug_str      0x0000000000000000     0x118f
 .debug_str     0x0000000000000000      0x181 /usr/lib/gcc/arm-none-eabi/4.9.3/../../../arm-none-eabi/lib/armv7-m/libm.a(lib_a-w_exp2.o)
                                        0x1c7 (size before relaxing)
 .debug_str     0x0000000000000181       0xde /usr/lib/gcc/arm-none-eabi/4.9.3/../../../arm-none-eabi/lib/armv7-m/libm.a(lib_a-w_pow.o)
                                        0x279 (size before relaxing)
 .debug_str     0x000000000000025f       0xde /usr/lib/gcc/arm-none-eabi/4.9.3/../../../arm-none-eabi/lib/armv7-m/libm.a(lib_a-e_pow.o)
                                        0x288 (size before relaxing)
 .debug_str     0x000000000000033d       0x31 /usr/lib/gcc/arm-none-eabi/4.9.3/../../../arm-none-eabi/lib/armv7-m/libm.a(lib_a-e_sqrt.o)
                                        0x21d (size before relaxing)
 .debug_str     0x000000000000036e       0x31 /usr/lib/gcc/arm-none-eabi/4.9.3/../../../arm-none-eabi/lib/armv7-m/libm.a(lib_a-s_fabs.o)
                                        0x1ff (size before relaxing)
 .debug_str     0x000000000000039f       0x95 /usr/lib/gcc/arm-none-eabi/4.9.3/../../../arm-none-eabi/lib/armv7-m/libm.a(lib_a-s_finite.o)
                                        0x1e4 (size before relaxing)
 .debug_str     0x0000000000000434       0x34 /usr/lib/gcc/arm-none-eabi/4.9.3/../../../arm-none-eabi/lib/armv7-m/libm.a(lib_a-s_fpclassify.o)
                                        0x1e5 (size before relaxing)
 .debug_str     0x0000000000000468       0x31 /usr/lib/gcc/arm-none-eabi/4.9.3/../../../arm-none-eabi/lib/armv7-m/libm.a(lib_a-s_lib_ver.o)
                                        0x224 (size before relaxing)
 .debug_str     0x0000000000000499       0x31 /usr/lib/gcc/arm-none-eabi/4.9.3/../../../arm-none-eabi/lib/armv7-m/libm.a(lib_a-s_matherr.o)
                                        0x1f6 (size before relaxing)
 .debug_str     0x00000000000004ca       0x2d /usr/lib/gcc/arm-none-eabi/4.9.3/../../../arm-none-eabi/lib/armv7-m/libm.a(lib_a-s_nan.o)
                                        0x1cc (size before relaxing)
 .debug_str     0x00000000000004f7       0xa6 /usr/lib/gcc/arm-none-eabi/4.9.3/../../../arm-none-eabi/lib/armv7-m/libm.a(lib_a-s_rint.o)
                                        0x225 (size before relaxing)
 .debug_str     0x000000000000059d       0x46 /usr/lib/gcc/arm-none-eabi/4.9.3/../../../arm-none-eabi/lib/armv7-m/libm.a(lib_a-s_scalbn.o)
                                        0x236 (size before relaxing)
 .debug_str     0x00000000000005e3       0x32 /usr/lib/gcc/arm-none-eabi/4.9.3/../../../arm-none-eabi/lib/armv7-m/libm.a(lib_a-s_copysign.o)
                                        0x206 (size before relaxing)
 .debug_str     0x0000000000000615      0x1a7 /usr/lib/gcc/arm-none-eabi/4.9.3/armv7-m/libgcc.a(bpabi.o)
                                        0x1cc (size before relaxing)
 .debug_str     0x00000000000007bc      0x163 /usr/lib/gcc/arm-none-eabi/4.9.3/armv7-m/libgcc.a(_divdi3.o)
                                        0x27a (size before relaxing)
 .debug_str     0x000000000000091f      0x27b /usr/lib/gcc/arm-none-eabi/4.9.3/armv7-m/libgcc.a(_udivdi3.o)
 .debug_str     0x000000000000091f      0x452 /usr/lib/gcc/arm-none-eabi/4.9.3/../../../arm-none-eabi/lib/armv7-m/libc.a(lib_a-atoi.o)
                                        0x57f (size before relaxing)
 .debug_str     0x0000000000000d71       0x90 /usr/lib/gcc/arm-none-eabi/4.9.3/../../../arm-none-eabi/lib/armv7-m/libc.a(lib_a-errno.o)
                                        0x574 (size before relaxing)
 .debug_str     0x0000000000000e01       0xb0 /usr/lib/gcc/arm-none-eabi/4.9.3/../../../arm-none-eabi/lib/armv7-m/libc.a(lib_a-impure.o)
                                        0x58c (size before relaxing)
 .debug_str     0x0000000000000eb1       0xa1 /usr/lib/gcc/arm-none-eabi/4.9.3/../../../arm-none-eabi/lib/armv7-m/libc.a(lib_a-memcmp.o)
                                        0x1bb (size before relaxing)
 .debug_str     0x0000000000000f52       0x49 /usr/lib/gcc/arm-none-eabi/4.9.3/../../../arm-none-eabi/lib/armv7-m/libc.a(lib_a-memset.o)
                                        0x1cf (size before relaxing)
 .debug_str     0x0000000000000f9b       0xa7 /usr/lib/gcc/arm-none-eabi/4.9.3/../../../arm-none-eabi/lib/armv7-m/libc.a(lib_a-strlen.o)
                                        0x1c8 (size before relaxing)
 .debug_str     0x0000000000001042       0x59 /usr/lib/gcc/arm-none-eabi/4.9.3/../../../arm-none-eabi/lib/armv7-m/libc.a(lib_a-strncpy.o)
                                        0x1e5 (size before relaxing)
 .debug_str     0x000000000000109b       0x5b /usr/lib/gcc/arm-none-eabi/4.9.3/../../../arm-none-eabi/lib/armv7-m/libc.a(lib_a-strtol.o)
                                        0x5b2 (size before relaxing)
 .debug_str     0x00000000000010f6       0x99 /usr/lib/gcc/arm-none-eabi/4.9.3/../../../arm-none-eabi/lib/armv7-m/libc.a(lib_a-ctype_.o)
                                        0x13d (size before relaxing)

.debug_frame    0x0000000000000000      0x480
 .debug_frame   0x0000000000000000       0x20 /usr/lib/gcc/arm-none-eabi/4.9.3/../../../arm-none-eabi/lib/armv7-m/libm.a(lib_a-w_exp2.o)
 .debug_frame   0x0000000000000020       0x44 /usr/lib/gcc/arm-none-eabi/4.9.3/../../../arm-none-eabi/lib/armv7-m/libm.a(lib_a-w_pow.o)
 .debug_frame   0x0000000000000064       0x64 /usr/lib/gcc/arm-none-eabi/4.9.3/../../../arm-none-eabi/lib/armv7-m/libm.a(lib_a-e_pow.o)
 .debug_frame   0x00000000000000c8       0x30 /usr/lib/gcc/arm-none-eabi/4.9.3/../../../arm-none-eabi/lib/armv7-m/libm.a(lib_a-e_sqrt.o)
 .debug_frame   0x00000000000000f8       0x20 /usr/lib/gcc/arm-none-eabi/4.9.3/../../../arm-none-eabi/lib/armv7-m/libm.a(lib_a-s_fabs.o)
 .debug_frame   0x0000000000000118       0x20 /usr/lib/gcc/arm-none-eabi/4.9.3/../../../arm-none-eabi/lib/armv7-m/libm.a(lib_a-s_finite.o)
 .debug_frame   0x0000000000000138       0x34 /usr/lib/gcc/arm-none-eabi/4.9.3/../../../arm-none-eabi/lib/armv7-m/libm.a(lib_a-s_fpclassify.o)
 .debug_frame   0x000000000000016c       0x20 /usr/lib/gcc/arm-none-eabi/4.9.3/../../../arm-none-eabi/lib/armv7-m/libm.a(lib_a-s_matherr.o)
 .debug_frame   0x000000000000018c       0x20 /usr/lib/gcc/arm-none-eabi/4.9.3/../../../arm-none-eabi/lib/armv7-m/libm.a(lib_a-s_nan.o)
 .debug_frame   0x00000000000001ac       0x3c /usr/lib/gcc/arm-none-eabi/4.9.3/../../../arm-none-eabi/lib/armv7-m/libm.a(lib_a-s_rint.o)
 .debug_frame   0x00000000000001e8       0x30 /usr/lib/gcc/arm-none-eabi/4.9.3/../../../arm-none-eabi/lib/armv7-m/libm.a(lib_a-s_scalbn.o)
 .debug_frame   0x0000000000000218       0x20 /usr/lib/gcc/arm-none-eabi/4.9.3/../../../arm-none-eabi/lib/armv7-m/libm.a(lib_a-s_copysign.o)
 .debug_frame   0x0000000000000238       0x28 /usr/lib/gcc/arm-none-eabi/4.9.3/armv7-m/libgcc.a(_aeabi_uldivmod.o)
 .debug_frame   0x0000000000000260       0x54 /usr/lib/gcc/arm-none-eabi/4.9.3/armv7-m/libgcc.a(bpabi.o)
 .debug_frame   0x00000000000002b4       0x34 /usr/lib/gcc/arm-none-eabi/4.9.3/armv7-m/libgcc.a(_divdi3.o)
 .debug_frame   0x00000000000002e8       0x34 /usr/lib/gcc/arm-none-eabi/4.9.3/armv7-m/libgcc.a(_udivdi3.o)
 .debug_frame   0x000000000000031c       0x30 /usr/lib/gcc/arm-none-eabi/4.9.3/../../../arm-none-eabi/lib/armv7-m/libc.a(lib_a-atoi.o)
 .debug_frame   0x000000000000034c       0x20 /usr/lib/gcc/arm-none-eabi/4.9.3/../../../arm-none-eabi/lib/armv7-m/libc.a(lib_a-errno.o)
 .debug_frame   0x000000000000036c       0x38 /usr/lib/gcc/arm-none-eabi/4.9.3/../../../arm-none-eabi/lib/armv7-m/libc.a(lib_a-memcmp.o)
 .debug_frame   0x00000000000003a4       0x34 /usr/lib/gcc/arm-none-eabi/4.9.3/../../../arm-none-eabi/lib/armv7-m/libc.a(lib_a-memset.o)
 .debug_frame   0x00000000000003d8       0x20 /usr/lib/gcc/arm-none-eabi/4.9.3/../../../arm-none-eabi/lib/armv7-m/libc.a(lib_a-strlen.o)
 .debug_frame   0x00000000000003f8       0x34 /usr/lib/gcc/arm-none-eabi/4.9.3/../../../arm-none-eabi/lib/armv7-m/libc.a(lib_a-strncpy.o)
 .debug_frame   0x000000000000042c       0x54 /usr/lib/gcc/arm-none-eabi/4.9.3/../../../arm-none-eabi/lib/armv7-m/libc.a(lib_a-strtol.o)

Cross Reference Table

Symbol                                            File
AONIntHandler                                     obj_srf06-cc26xx/startup_gcc.o
AONProgIntHandler                                 obj_srf06-cc26xx/startup_gcc.o
AONRTCIntHandler                                  contiki-srf06-cc26xx.a(soc-rtc.o)
                                                  obj_srf06-cc26xx/startup_gcc.o
AUXADCIntHandler                                  obj_srf06-cc26xx/startup_gcc.o
AUXCombEventIntHandler                            obj_srf06-cc26xx/startup_gcc.o
AUXCompAIntHandler                                obj_srf06-cc26xx/startup_gcc.o
AUXSWEvent0IntHandler                             obj_srf06-cc26xx/startup_gcc.o
AUXSWEvent1IntHandler                             obj_srf06-cc26xx/startup_gcc.o
BusFaultIntHandler                                obj_srf06-cc26xx/startup_gcc.o
CryptoIntHandler                                  obj_srf06-cc26xx/startup_gcc.o
DebugMonIntHandler                                obj_srf06-cc26xx/startup_gcc.o
DynProgIntHandler                                 obj_srf06-cc26xx/startup_gcc.o
FaultISR                                          obj_srf06-cc26xx/fault-handlers.o
FlashIntHandler                                   obj_srf06-cc26xx/startup_gcc.o
GPIOIntHandler                                    contiki-srf06-cc26xx.a(gpio-interrupt.)
                                                  obj_srf06-cc26xx/startup_gcc.o
I2CIntHandler                                     obj_srf06-cc26xx/startup_gcc.o
I2SIntHandler                                     obj_srf06-cc26xx/startup_gcc.o
MPUFaultIntHandler                                obj_srf06-cc26xx/startup_gcc.o
NOROM_AONBatMonTemperatureGetDegC                 contiki-srf06-cc26xx.a(aon_batmon.o)
                                                  contiki-srf06-cc26xx.a(sys_ctrl.o)
                                                  contiki-srf06-cc26xx.a(osc.o)
                                                  contiki-srf06-cc26xx.a(batmon-sensor.o)
NOROM_AONRTCCurrent64BitValueGet                  contiki-srf06-cc26xx.a(aon_rtc.o)
NOROM_AONRTCCurrentCompareValueGet                contiki-srf06-cc26xx.a(aon_rtc.o)
                                                  contiki-srf06-cc26xx.a(osc.o)
                                                  contiki-srf06-cc26xx.a(soc-rtc.o)
                                                  contiki-srf06-cc26xx.a(rtimer-arch.o)
NOROM_CPUbasepriGet                               contiki-srf06-cc26xx.a(cpu.o)
NOROM_CPUcpsid                                    contiki-srf06-cc26xx.a(cpu.o)
                                                  contiki-srf06-cc26xx.a(rf-ble.o)
                                                  contiki-srf06-cc26xx.a(rf-core.o)
                                                  contiki-srf06-cc26xx.a(aux-ctrl.o)
                                                  contiki-srf06-cc26xx.a(ddi.o)
                                                  contiki-srf06-cc26xx.a(adi.o)
                                                  contiki-srf06-cc26xx.a(soc-trng.o)
                                                  contiki-srf06-cc26xx.a(ieee-mode.o)
                                                  contiki-srf06-cc26xx.a(gpio-interrupt.)
                                                  contiki-srf06-cc26xx.a(lpm.o)
                                                  contiki-srf06-cc26xx.a(cc26xx-uart.o)
                                                  contiki-srf06-cc26xx.a(contiki-watchdo)
                                                  contiki-srf06-cc26xx.a(soc-rtc.o)
                                                  contiki-srf06-cc26xx.a(clock.o)
                                                  contiki-srf06-cc26xx.a(board.o)
                                                  contiki-srf06-cc26xx.a(contiki-main.o)
NOROM_CPUcpsie                                    contiki-srf06-cc26xx.a(cpu.o)
                                                  contiki-srf06-cc26xx.a(rf-ble.o)
                                                  contiki-srf06-cc26xx.a(rf-core.o)
                                                  contiki-srf06-cc26xx.a(aux-ctrl.o)
                                                  contiki-srf06-cc26xx.a(ddi.o)
                                                  contiki-srf06-cc26xx.a(adi.o)
                                                  contiki-srf06-cc26xx.a(soc-trng.o)
                                                  contiki-srf06-cc26xx.a(ieee-mode.o)
                                                  contiki-srf06-cc26xx.a(gpio-interrupt.)
                                                  contiki-srf06-cc26xx.a(lpm.o)
                                                  contiki-srf06-cc26xx.a(cc26xx-uart.o)
                                                  contiki-srf06-cc26xx.a(contiki-watchdo)
                                                  contiki-srf06-cc26xx.a(soc-rtc.o)
                                                  contiki-srf06-cc26xx.a(clock.o)
                                                  contiki-srf06-cc26xx.a(board.o)
                                                  contiki-srf06-cc26xx.a(contiki-main.o)
NOROM_CPUdelay                                    contiki-srf06-cc26xx.a(cpu.o)
                                                  contiki-srf06-cc26xx.a(board-i2c.o)
                                                  contiki-srf06-cc26xx.a(mpu-9250-sensor)
NOROM_CPUprimask                                  contiki-srf06-cc26xx.a(cpu.o)
NOROM_ChipInfo_GetChipFamily                      contiki-srf06-cc26xx.a(chipinfo.o)
                                                  contiki-srf06-cc26xx.a(contiki-main.o)
NOROM_ChipInfo_GetChipType                        contiki-srf06-cc26xx.a(chipinfo.o)
                                                  contiki-srf06-cc26xx.a(rf-core.o)
NOROM_ChipInfo_GetHwRevision                      contiki-srf06-cc26xx.a(chipinfo.o)
NOROM_ChipInfo_GetPackageType                     contiki-srf06-cc26xx.a(chipinfo.o)
NOROM_ChipInfo_GetSupportedProtocol_BV            contiki-srf06-cc26xx.a(chipinfo.o)
                                                  contiki-srf06-cc26xx.a(rf-ble.o)
                                                  contiki-srf06-cc26xx.a(contiki-main.o)
NOROM_DDI16BitRead                                contiki-srf06-cc26xx.a(ddi.o)
NOROM_DDI16BitWrite                               contiki-srf06-cc26xx.a(ddi.o)
NOROM_DDI16BitfieldRead                           contiki-srf06-cc26xx.a(ddi.o)
                                                  contiki-srf06-cc26xx.a(osc.o)
NOROM_DDI16BitfieldWrite                          contiki-srf06-cc26xx.a(ddi.o)
                                                  contiki-srf06-cc26xx.a(setup_rom.o)
                                                  contiki-srf06-cc26xx.a(osc.o)
                                                  contiki-srf06-cc26xx.a(oscillators.o)
NOROM_DDI32RegWrite                               contiki-srf06-cc26xx.a(ddi.o)
                                                  contiki-srf06-cc26xx.a(setup_rom.o)
NOROM_OSCClockSourceGet                           contiki-srf06-cc26xx.a(osc.o)
                                                  contiki-srf06-cc26xx.a(setup_rom.o)
                                                  contiki-srf06-cc26xx.a(sys_ctrl.o)
                                                  contiki-srf06-cc26xx.a(oscillators.o)
NOROM_OSCClockSourceSet                           contiki-srf06-cc26xx.a(osc.o)
                                                  contiki-srf06-cc26xx.a(setup_rom.o)
                                                  contiki-srf06-cc26xx.a(sys_ctrl.o)
                                                  contiki-srf06-cc26xx.a(oscillators.o)
NOROM_OSCHF_AttemptToSwitchToXosc                 contiki-srf06-cc26xx.a(osc.o)
NOROM_OSCHF_DebugGetCrystalAmplitude              contiki-srf06-cc26xx.a(osc.o)
NOROM_OSCHF_DebugGetExpectedAverageCrystalAmplitude contiki-srf06-cc26xx.a(osc.o)
NOROM_OSCHF_GetStartupTime                        contiki-srf06-cc26xx.a(osc.o)
NOROM_OSCHF_SwitchToRcOscTurnOffXosc              contiki-srf06-cc26xx.a(osc.o)
NOROM_OSCHF_TurnOnXosc                            contiki-srf06-cc26xx.a(osc.o)
NOROM_OSC_HPOSCRelativeFrequencyOffsetGet         contiki-srf06-cc26xx.a(osc.o)
NOROM_OSC_HPOSCRelativeFrequencyOffsetToRFCoreFormatConvert contiki-srf06-cc26xx.a(osc.o)
NOROM_PowerCtrlSourceSet                          contiki-srf06-cc26xx.a(pwr_ctrl.o)
                                                  contiki-srf06-cc26xx.a(lpm.o)
NOROM_SetupAfterColdResetWakeupFromShutDownCfg1   contiki-srf06-cc26xx.a(setup_rom.o)
                                                  contiki-srf06-cc26xx.a(setup.o)
NOROM_SetupAfterColdResetWakeupFromShutDownCfg2   contiki-srf06-cc26xx.a(setup_rom.o)
                                                  contiki-srf06-cc26xx.a(setup.o)
NOROM_SetupAfterColdResetWakeupFromShutDownCfg3   contiki-srf06-cc26xx.a(setup_rom.o)
                                                  contiki-srf06-cc26xx.a(setup.o)
NOROM_SetupGetTrimForAdcShModeEn                  contiki-srf06-cc26xx.a(setup_rom.o)
NOROM_SetupGetTrimForAdcShVbufEn                  contiki-srf06-cc26xx.a(setup_rom.o)
NOROM_SetupGetTrimForAmpcompCtrl                  contiki-srf06-cc26xx.a(setup_rom.o)
NOROM_SetupGetTrimForAmpcompTh1                   contiki-srf06-cc26xx.a(setup_rom.o)
NOROM_SetupGetTrimForAmpcompTh2                   contiki-srf06-cc26xx.a(setup_rom.o)
NOROM_SetupGetTrimForAnabypassValue1              contiki-srf06-cc26xx.a(setup_rom.o)
NOROM_SetupGetTrimForDblrLoopFilterResetVoltage   contiki-srf06-cc26xx.a(setup_rom.o)
NOROM_SetupGetTrimForRadcExtCfg                   contiki-srf06-cc26xx.a(setup_rom.o)
NOROM_SetupGetTrimForRcOscLfIBiasTrim             contiki-srf06-cc26xx.a(setup_rom.o)
NOROM_SetupGetTrimForRcOscLfRtuneCtuneTrim        contiki-srf06-cc26xx.a(setup_rom.o)
NOROM_SetupGetTrimForXoscHfCtl                    contiki-srf06-cc26xx.a(setup_rom.o)
NOROM_SetupGetTrimForXoscHfFastStart              contiki-srf06-cc26xx.a(setup_rom.o)
NOROM_SetupGetTrimForXoscHfIbiastherm             contiki-srf06-cc26xx.a(setup_rom.o)
NOROM_SetupGetTrimForXoscLfRegulatorAndCmirrwrRatio contiki-srf06-cc26xx.a(setup_rom.o)
NOROM_SetupSetAonRtcSubSecInc                     contiki-srf06-cc26xx.a(setup_rom.o)
NOROM_SetupSetCacheModeAccordingToCcfgSetting     contiki-srf06-cc26xx.a(setup_rom.o)
                                                  contiki-srf06-cc26xx.a(setup.o)
NOROM_SetupTrimDevice                             contiki-srf06-cc26xx.a(setup.o)
                                                  obj_srf06-cc26xx/startup_gcc.o
NOROM_SysCtrlAdjustRechargeAfterPowerDown         contiki-srf06-cc26xx.a(sys_ctrl.o)
                                                  contiki-srf06-cc26xx.a(lpm.o)
NOROM_SysCtrlPowerEverything                      contiki-srf06-cc26xx.a(sys_ctrl.o)
NOROM_SysCtrlResetSourceGet                       contiki-srf06-cc26xx.a(sys_ctrl.o)
NOROM_SysCtrlSetRechargeBeforePowerDown           contiki-srf06-cc26xx.a(sys_ctrl.o)
                                                  contiki-srf06-cc26xx.a(lpm.o)
NOROM_SysCtrl_DCDC_VoltageConditionalControl      contiki-srf06-cc26xx.a(sys_ctrl.o)
                                                  contiki-srf06-cc26xx.a(lpm.o)
NOROM_TRNGConfigure                               contiki-srf06-cc26xx.a(trng.o)
                                                  contiki-srf06-cc26xx.a(soc-trng.o)
NOROM_TRNGNumberGet                               contiki-srf06-cc26xx.a(trng.o)
NOROM_ThisCodeIsBuiltForCC26xxHwRev22AndLater_HaltIfViolated contiki-srf06-cc26xx.a(chipinfo.o)
                                                  contiki-srf06-cc26xx.a(setup.o)
NmiSR                                             obj_srf06-cc26xx/startup_gcc.o
PendSVIntHandler                                  obj_srf06-cc26xx/startup_gcc.o
RFCCPE0IntHandler                                 contiki-srf06-cc26xx.a(rf-core.o)
                                                  obj_srf06-cc26xx/startup_gcc.o
RFCCPE1IntHandler                                 contiki-srf06-cc26xx.a(rf-core.o)
                                                  obj_srf06-cc26xx/startup_gcc.o
RFCCmdAckIntHandler                               obj_srf06-cc26xx/startup_gcc.o
RFCHardwareIntHandler                             obj_srf06-cc26xx/startup_gcc.o
ResetISR                                          obj_srf06-cc26xx/startup_gcc.o
SSI0IntHandler                                    obj_srf06-cc26xx/startup_gcc.o
SSI1IntHandler                                    obj_srf06-cc26xx/startup_gcc.o
SVCallIntHandler                                  obj_srf06-cc26xx/startup_gcc.o
SWEvent0IntHandler                                obj_srf06-cc26xx/startup_gcc.o
SafeHapiAuxAdiSelect                              contiki-srf06-cc26xx.a(adi.o)
SafeHapiVoid                                      contiki-srf06-cc26xx.a(adi.o)
                                                  contiki-srf06-cc26xx.a(sys_ctrl.o)
                                                  contiki-srf06-cc26xx.a(osc.o)
                                                  contiki-srf06-cc26xx.a(oscillators.o)
SysTickIntHandler                                 obj_srf06-cc26xx/startup_gcc.o
TRNGIntHandler                                    contiki-srf06-cc26xx.a(soc-trng.o)
                                                  obj_srf06-cc26xx/startup_gcc.o
Timer0AIntHandler                                 obj_srf06-cc26xx/startup_gcc.o
Timer0BIntHandler                                 obj_srf06-cc26xx/startup_gcc.o
Timer1AIntHandler                                 obj_srf06-cc26xx/startup_gcc.o
Timer1BIntHandler                                 obj_srf06-cc26xx/startup_gcc.o
Timer2AIntHandler                                 obj_srf06-cc26xx/startup_gcc.o
Timer2BIntHandler                                 obj_srf06-cc26xx/startup_gcc.o
Timer3AIntHandler                                 obj_srf06-cc26xx/startup_gcc.o
Timer3BIntHandler                                 obj_srf06-cc26xx/startup_gcc.o
UART0IntHandler                                   contiki-srf06-cc26xx.a(cc26xx-uart.o)
                                                  obj_srf06-cc26xx/startup_gcc.o
UsageFaultIntHandler                              obj_srf06-cc26xx/startup_gcc.o
WatchdogIntHandler                                obj_srf06-cc26xx/startup_gcc.o
__adddf3                                          /usr/lib/gcc/arm-none-eabi/4.9.3/armv7-m/libgcc.a(_arm_addsubdf3.o)
__addsf3                                          /usr/lib/gcc/arm-none-eabi/4.9.3/armv7-m/libgcc.a(_arm_addsubsf3.o)
__aeabi_cdcmpeq                                   /usr/lib/gcc/arm-none-eabi/4.9.3/armv7-m/libgcc.a(_arm_cmpdf2.o)
__aeabi_cdcmple                                   /usr/lib/gcc/arm-none-eabi/4.9.3/armv7-m/libgcc.a(_arm_cmpdf2.o)
__aeabi_cdrcmple                                  /usr/lib/gcc/arm-none-eabi/4.9.3/armv7-m/libgcc.a(_arm_cmpdf2.o)
__aeabi_d2f                                       /usr/lib/gcc/arm-none-eabi/4.9.3/armv7-m/libgcc.a(_arm_truncdfsf2.o)
                                                  contiki-srf06-cc26xx.a(mpu-9250-sensor)
                                                  contiki-srf06-cc26xx.a(hdc-1000-sensor)
                                                  contiki-srf06-cc26xx.a(opt-3001-sensor)
__aeabi_dadd                                      /usr/lib/gcc/arm-none-eabi/4.9.3/armv7-m/libgcc.a(_arm_addsubdf3.o)
                                                  /usr/lib/gcc/arm-none-eabi/4.9.3/../../../arm-none-eabi/lib/armv7-m/libm.a(lib_a-s_scalbn.o)
                                                  /usr/lib/gcc/arm-none-eabi/4.9.3/../../../arm-none-eabi/lib/armv7-m/libm.a(lib_a-s_rint.o)
                                                  /usr/lib/gcc/arm-none-eabi/4.9.3/../../../arm-none-eabi/lib/armv7-m/libm.a(lib_a-e_sqrt.o)
                                                  /usr/lib/gcc/arm-none-eabi/4.9.3/../../../arm-none-eabi/lib/armv7-m/libm.a(lib_a-e_pow.o)
__aeabi_dcmpeq                                    /usr/lib/gcc/arm-none-eabi/4.9.3/armv7-m/libgcc.a(_arm_cmpdf2.o)
                                                  /usr/lib/gcc/arm-none-eabi/4.9.3/../../../arm-none-eabi/lib/armv7-m/libm.a(lib_a-w_pow.o)
__aeabi_dcmpge                                    /usr/lib/gcc/arm-none-eabi/4.9.3/armv7-m/libgcc.a(_arm_cmpdf2.o)
__aeabi_dcmpgt                                    /usr/lib/gcc/arm-none-eabi/4.9.3/armv7-m/libgcc.a(_arm_cmpdf2.o)
                                                  /usr/lib/gcc/arm-none-eabi/4.9.3/../../../arm-none-eabi/lib/armv7-m/libm.a(lib_a-e_pow.o)
__aeabi_dcmple                                    /usr/lib/gcc/arm-none-eabi/4.9.3/armv7-m/libgcc.a(_arm_cmpdf2.o)
                                                  /usr/lib/gcc/arm-none-eabi/4.9.3/../../../arm-none-eabi/lib/armv7-m/libm.a(lib_a-e_pow.o)
__aeabi_dcmplt                                    /usr/lib/gcc/arm-none-eabi/4.9.3/armv7-m/libgcc.a(_arm_cmpdf2.o)
                                                  /usr/lib/gcc/arm-none-eabi/4.9.3/../../../arm-none-eabi/lib/armv7-m/libm.a(lib_a-w_pow.o)
__aeabi_ddiv                                      /usr/lib/gcc/arm-none-eabi/4.9.3/armv7-m/libgcc.a(_arm_muldivdf3.o)
                                                  /usr/lib/gcc/arm-none-eabi/4.9.3/../../../arm-none-eabi/lib/armv7-m/libm.a(lib_a-e_sqrt.o)
                                                  /usr/lib/gcc/arm-none-eabi/4.9.3/../../../arm-none-eabi/lib/armv7-m/libm.a(lib_a-e_pow.o)
                                                  /usr/lib/gcc/arm-none-eabi/4.9.3/../../../arm-none-eabi/lib/armv7-m/libm.a(lib_a-w_pow.o)
                                                  contiki-srf06-cc26xx.a(mpu-9250-sensor)
__aeabi_dmul                                      /usr/lib/gcc/arm-none-eabi/4.9.3/armv7-m/libgcc.a(_arm_muldivdf3.o)
                                                  /usr/lib/gcc/arm-none-eabi/4.9.3/../../../arm-none-eabi/lib/armv7-m/libm.a(lib_a-s_scalbn.o)
                                                  /usr/lib/gcc/arm-none-eabi/4.9.3/../../../arm-none-eabi/lib/armv7-m/libm.a(lib_a-e_sqrt.o)
                                                  /usr/lib/gcc/arm-none-eabi/4.9.3/../../../arm-none-eabi/lib/armv7-m/libm.a(lib_a-e_pow.o)
                                                  /usr/lib/gcc/arm-none-eabi/4.9.3/../../../arm-none-eabi/lib/armv7-m/libm.a(lib_a-w_pow.o)
                                                  contiki-srf06-cc26xx.a(mpu-9250-sensor)
                                                  contiki-srf06-cc26xx.a(hdc-1000-sensor)
                                                  contiki-srf06-cc26xx.a(opt-3001-sensor)
__aeabi_drsub                                     /usr/lib/gcc/arm-none-eabi/4.9.3/armv7-m/libgcc.a(_arm_addsubdf3.o)
__aeabi_dsub                                      /usr/lib/gcc/arm-none-eabi/4.9.3/armv7-m/libgcc.a(_arm_addsubdf3.o)
                                                  /usr/lib/gcc/arm-none-eabi/4.9.3/../../../arm-none-eabi/lib/armv7-m/libm.a(lib_a-s_rint.o)
                                                  /usr/lib/gcc/arm-none-eabi/4.9.3/../../../arm-none-eabi/lib/armv7-m/libm.a(lib_a-e_sqrt.o)
                                                  /usr/lib/gcc/arm-none-eabi/4.9.3/../../../arm-none-eabi/lib/armv7-m/libm.a(lib_a-e_pow.o)
                                                  contiki-srf06-cc26xx.a(hdc-1000-sensor)
__aeabi_f2d                                       /usr/lib/gcc/arm-none-eabi/4.9.3/armv7-m/libgcc.a(_arm_addsubdf3.o)
__aeabi_f2iz                                      /usr/lib/gcc/arm-none-eabi/4.9.3/armv7-m/libgcc.a(_arm_fixsfsi.o)
                                                  contiki-srf06-cc26xx.a(mpu-9250-sensor)
                                                  contiki-srf06-cc26xx.a(hdc-1000-sensor)
                                                  contiki-srf06-cc26xx.a(opt-3001-sensor)
                                                  contiki-srf06-cc26xx.a(tmp-007-sensor.)
__aeabi_fadd                                      /usr/lib/gcc/arm-none-eabi/4.9.3/armv7-m/libgcc.a(_arm_addsubsf3.o)
__aeabi_fdiv                                      /usr/lib/gcc/arm-none-eabi/4.9.3/armv7-m/libgcc.a(_arm_muldivsf3.o)
__aeabi_fmul                                      /usr/lib/gcc/arm-none-eabi/4.9.3/armv7-m/libgcc.a(_arm_muldivsf3.o)
                                                  contiki-srf06-cc26xx.a(mpu-9250-sensor)
                                                  contiki-srf06-cc26xx.a(hdc-1000-sensor)
                                                  contiki-srf06-cc26xx.a(opt-3001-sensor)
                                                  contiki-srf06-cc26xx.a(tmp-007-sensor.)
__aeabi_frsub                                     /usr/lib/gcc/arm-none-eabi/4.9.3/armv7-m/libgcc.a(_arm_addsubsf3.o)
__aeabi_fsub                                      /usr/lib/gcc/arm-none-eabi/4.9.3/armv7-m/libgcc.a(_arm_addsubsf3.o)
__aeabi_i2d                                       /usr/lib/gcc/arm-none-eabi/4.9.3/armv7-m/libgcc.a(_arm_addsubdf3.o)
                                                  /usr/lib/gcc/arm-none-eabi/4.9.3/../../../arm-none-eabi/lib/armv7-m/libm.a(lib_a-e_pow.o)
                                                  contiki-srf06-cc26xx.a(mpu-9250-sensor)
                                                  contiki-srf06-cc26xx.a(opt-3001-sensor)
__aeabi_i2f                                       /usr/lib/gcc/arm-none-eabi/4.9.3/armv7-m/libgcc.a(_arm_addsubsf3.o)
                                                  contiki-srf06-cc26xx.a(tmp-007-sensor.)
__aeabi_idiv0                                     /usr/lib/gcc/arm-none-eabi/4.9.3/armv7-m/libgcc.a(_dvmd_tls.o)
__aeabi_l2d                                       /usr/lib/gcc/arm-none-eabi/4.9.3/armv7-m/libgcc.a(_arm_addsubdf3.o)
__aeabi_l2f                                       /usr/lib/gcc/arm-none-eabi/4.9.3/armv7-m/libgcc.a(_arm_addsubsf3.o)
__aeabi_ldiv0                                     /usr/lib/gcc/arm-none-eabi/4.9.3/armv7-m/libgcc.a(_dvmd_tls.o)
                                                  /usr/lib/gcc/arm-none-eabi/4.9.3/armv7-m/libgcc.a(_aeabi_uldivmod.o)
__aeabi_ui2d                                      /usr/lib/gcc/arm-none-eabi/4.9.3/armv7-m/libgcc.a(_arm_addsubdf3.o)
                                                  contiki-srf06-cc26xx.a(hdc-1000-sensor)
                                                  contiki-srf06-cc26xx.a(opt-3001-sensor)
__aeabi_ui2f                                      /usr/lib/gcc/arm-none-eabi/4.9.3/armv7-m/libgcc.a(_arm_addsubsf3.o)
__aeabi_ul2d                                      /usr/lib/gcc/arm-none-eabi/4.9.3/armv7-m/libgcc.a(_arm_addsubdf3.o)
__aeabi_ul2f                                      /usr/lib/gcc/arm-none-eabi/4.9.3/armv7-m/libgcc.a(_arm_addsubsf3.o)
__aeabi_uldivmod                                  /usr/lib/gcc/arm-none-eabi/4.9.3/armv7-m/libgcc.a(_aeabi_uldivmod.o)
                                                  contiki-srf06-cc26xx.a(strformat.o)
                                                  contiki-srf06-cc26xx.a(ieee-mode.o)
__ccfg                                            obj_srf06-cc26xx/ccfg.o
__cmpdf2                                          /usr/lib/gcc/arm-none-eabi/4.9.3/armv7-m/libgcc.a(_arm_cmpdf2.o)
__ctype_ptr__                                     /usr/lib/gcc/arm-none-eabi/4.9.3/../../../arm-none-eabi/lib/armv7-m/libc.a(lib_a-ctype_.o)
                                                  /usr/lib/gcc/arm-none-eabi/4.9.3/../../../arm-none-eabi/lib/armv7-m/libc.a(lib_a-strtol.o)
__divdf3                                          /usr/lib/gcc/arm-none-eabi/4.9.3/armv7-m/libgcc.a(_arm_muldivdf3.o)
__divdi3                                          /usr/lib/gcc/arm-none-eabi/4.9.3/armv7-m/libgcc.a(_divdi3.o)
                                                  /usr/lib/gcc/arm-none-eabi/4.9.3/armv7-m/libgcc.a(bpabi.o)
__divsf3                                          /usr/lib/gcc/arm-none-eabi/4.9.3/armv7-m/libgcc.a(_arm_muldivsf3.o)
__eqdf2                                           /usr/lib/gcc/arm-none-eabi/4.9.3/armv7-m/libgcc.a(_arm_cmpdf2.o)
__errno                                           /usr/lib/gcc/arm-none-eabi/4.9.3/../../../arm-none-eabi/lib/armv7-m/libc.a(lib_a-errno.o)
                                                  /usr/lib/gcc/arm-none-eabi/4.9.3/../../../arm-none-eabi/lib/armv7-m/libm.a(lib_a-w_pow.o)
__extendsfdf2                                     /usr/lib/gcc/arm-none-eabi/4.9.3/armv7-m/libgcc.a(_arm_addsubdf3.o)
__fdlib_version                                   /usr/lib/gcc/arm-none-eabi/4.9.3/../../../arm-none-eabi/lib/armv7-m/libm.a(lib_a-s_lib_ver.o)
                                                  /usr/lib/gcc/arm-none-eabi/4.9.3/../../../arm-none-eabi/lib/armv7-m/libm.a(lib_a-w_pow.o)
__fixsfsi                                         /usr/lib/gcc/arm-none-eabi/4.9.3/armv7-m/libgcc.a(_arm_fixsfsi.o)
__floatdidf                                       /usr/lib/gcc/arm-none-eabi/4.9.3/armv7-m/libgcc.a(_arm_addsubdf3.o)
__floatdisf                                       /usr/lib/gcc/arm-none-eabi/4.9.3/armv7-m/libgcc.a(_arm_addsubsf3.o)
__floatsidf                                       /usr/lib/gcc/arm-none-eabi/4.9.3/armv7-m/libgcc.a(_arm_addsubdf3.o)
__floatsisf                                       /usr/lib/gcc/arm-none-eabi/4.9.3/armv7-m/libgcc.a(_arm_addsubsf3.o)
__floatundidf                                     /usr/lib/gcc/arm-none-eabi/4.9.3/armv7-m/libgcc.a(_arm_addsubdf3.o)
__floatundisf                                     /usr/lib/gcc/arm-none-eabi/4.9.3/armv7-m/libgcc.a(_arm_addsubsf3.o)
__floatunsidf                                     /usr/lib/gcc/arm-none-eabi/4.9.3/armv7-m/libgcc.a(_arm_addsubdf3.o)
__floatunsisf                                     /usr/lib/gcc/arm-none-eabi/4.9.3/armv7-m/libgcc.a(_arm_addsubsf3.o)
__fpclassifyd                                     /usr/lib/gcc/arm-none-eabi/4.9.3/../../../arm-none-eabi/lib/armv7-m/libm.a(lib_a-s_fpclassify.o)
                                                  /usr/lib/gcc/arm-none-eabi/4.9.3/../../../arm-none-eabi/lib/armv7-m/libm.a(lib_a-w_pow.o)
__gedf2                                           /usr/lib/gcc/arm-none-eabi/4.9.3/armv7-m/libgcc.a(_arm_cmpdf2.o)
__gnu_ldivmod_helper                              /usr/lib/gcc/arm-none-eabi/4.9.3/armv7-m/libgcc.a(bpabi.o)
__gnu_uldivmod_helper                             /usr/lib/gcc/arm-none-eabi/4.9.3/armv7-m/libgcc.a(bpabi.o)
                                                  /usr/lib/gcc/arm-none-eabi/4.9.3/armv7-m/libgcc.a(_aeabi_uldivmod.o)
__gtdf2                                           /usr/lib/gcc/arm-none-eabi/4.9.3/armv7-m/libgcc.a(_arm_cmpdf2.o)
__ieee754_pow                                     /usr/lib/gcc/arm-none-eabi/4.9.3/../../../arm-none-eabi/lib/armv7-m/libm.a(lib_a-e_pow.o)
                                                  /usr/lib/gcc/arm-none-eabi/4.9.3/../../../arm-none-eabi/lib/armv7-m/libm.a(lib_a-w_pow.o)
__ieee754_sqrt                                    /usr/lib/gcc/arm-none-eabi/4.9.3/../../../arm-none-eabi/lib/armv7-m/libm.a(lib_a-e_sqrt.o)
                                                  /usr/lib/gcc/arm-none-eabi/4.9.3/../../../arm-none-eabi/lib/armv7-m/libm.a(lib_a-e_pow.o)
__ledf2                                           /usr/lib/gcc/arm-none-eabi/4.9.3/armv7-m/libgcc.a(_arm_cmpdf2.o)
__ltdf2                                           /usr/lib/gcc/arm-none-eabi/4.9.3/armv7-m/libgcc.a(_arm_cmpdf2.o)
__muldf3                                          /usr/lib/gcc/arm-none-eabi/4.9.3/armv7-m/libgcc.a(_arm_muldivdf3.o)
__mulsf3                                          /usr/lib/gcc/arm-none-eabi/4.9.3/armv7-m/libgcc.a(_arm_muldivsf3.o)
__nedf2                                           /usr/lib/gcc/arm-none-eabi/4.9.3/armv7-m/libgcc.a(_arm_cmpdf2.o)
__subdf3                                          /usr/lib/gcc/arm-none-eabi/4.9.3/armv7-m/libgcc.a(_arm_addsubdf3.o)
__subsf3                                          /usr/lib/gcc/arm-none-eabi/4.9.3/armv7-m/libgcc.a(_arm_addsubsf3.o)
__truncdfsf2                                      /usr/lib/gcc/arm-none-eabi/4.9.3/armv7-m/libgcc.a(_arm_truncdfsf2.o)
__udivdi3                                         /usr/lib/gcc/arm-none-eabi/4.9.3/armv7-m/libgcc.a(_udivdi3.o)
                                                  /usr/lib/gcc/arm-none-eabi/4.9.3/armv7-m/libgcc.a(bpabi.o)
_atoi_r                                           /usr/lib/gcc/arm-none-eabi/4.9.3/../../../arm-none-eabi/lib/armv7-m/libc.a(lib_a-atoi.o)
_bss                                              obj_srf06-cc26xx/startup_gcc.o
_ctype_                                           /usr/lib/gcc/arm-none-eabi/4.9.3/../../../arm-none-eabi/lib/armv7-m/libc.a(lib_a-ctype_.o)
_data                                             obj_srf06-cc26xx/startup_gcc.o
_ebss                                             obj_srf06-cc26xx/startup_gcc.o
_edata                                            obj_srf06-cc26xx/startup_gcc.o
_estack                                           obj_srf06-cc26xx/startup_gcc.o
_etext                                            obj_srf06-cc26xx/startup_gcc.o
_global_impure_ptr                                /usr/lib/gcc/arm-none-eabi/4.9.3/../../../arm-none-eabi/lib/armv7-m/libc.a(lib_a-impure.o)
_impure_ptr                                       /usr/lib/gcc/arm-none-eabi/4.9.3/../../../arm-none-eabi/lib/armv7-m/libc.a(lib_a-impure.o)
                                                  /usr/lib/gcc/arm-none-eabi/4.9.3/../../../arm-none-eabi/lib/armv7-m/libc.a(lib_a-strtol.o)
                                                  /usr/lib/gcc/arm-none-eabi/4.9.3/../../../arm-none-eabi/lib/armv7-m/libc.a(lib_a-errno.o)
_strtol_r                                         /usr/lib/gcc/arm-none-eabi/4.9.3/../../../arm-none-eabi/lib/armv7-m/libc.a(lib_a-strtol.o)
                                                  /usr/lib/gcc/arm-none-eabi/4.9.3/../../../arm-none-eabi/lib/armv7-m/libc.a(lib_a-atoi.o)
abc_close                                         contiki-srf06-cc26xx.a(abc.o)
                                                  contiki-srf06-cc26xx.a(broadcast.o)
abc_input                                         contiki-srf06-cc26xx.a(abc.o)
                                                  contiki-srf06-cc26xx.a(rime.o)
abc_open                                          contiki-srf06-cc26xx.a(abc.o)
                                                  contiki-srf06-cc26xx.a(broadcast.o)
abc_send                                          contiki-srf06-cc26xx.a(abc.o)
                                                  contiki-srf06-cc26xx.a(broadcast.o)
abc_sent                                          contiki-srf06-cc26xx.a(abc.o)
                                                  contiki-srf06-cc26xx.a(rime.o)
announcement_bump                                 contiki-srf06-cc26xx.a(announcement.o)
announcement_heard                                contiki-srf06-cc26xx.a(announcement.o)
                                                  contiki-srf06-cc26xx.a(broadcast-annou)
announcement_init                                 contiki-srf06-cc26xx.a(announcement.o)
                                                  contiki-srf06-cc26xx.a(rime.o)
announcement_list                                 contiki-srf06-cc26xx.a(announcement.o)
                                                  contiki-srf06-cc26xx.a(broadcast-annou)
announcement_listen                               contiki-srf06-cc26xx.a(announcement.o)
announcement_register                             contiki-srf06-cc26xx.a(announcement.o)
announcement_register_listen_callback             contiki-srf06-cc26xx.a(announcement.o)
announcement_register_observer_callback           contiki-srf06-cc26xx.a(announcement.o)
                                                  contiki-srf06-cc26xx.a(broadcast-annou)
announcement_remove                               contiki-srf06-cc26xx.a(announcement.o)
announcement_remove_value                         contiki-srf06-cc26xx.a(announcement.o)
announcement_set_value                            contiki-srf06-cc26xx.a(announcement.o)
atoi                                              /usr/lib/gcc/arm-none-eabi/4.9.3/../../../arm-none-eabi/lib/armv7-m/libc.a(lib_a-atoi.o)
                                                  cc26xx-data-collection.co
autostart_exit                                    contiki-srf06-cc26xx.a(autostart.o)
autostart_processes                               cc26xx-data-collection.co
                                                  contiki-srf06-cc26xx.a(contiki-main.o)
autostart_start                                   contiki-srf06-cc26xx.a(autostart.o)
                                                  contiki-srf06-cc26xx.a(contiki-main.o)
aux_ctrl_power_down                               contiki-srf06-cc26xx.a(aux-ctrl.o)
                                                  contiki-srf06-cc26xx.a(lpm.o)
aux_ctrl_power_up                                 contiki-srf06-cc26xx.a(aux-ctrl.o)
                                                  contiki-srf06-cc26xx.a(lpm.o)
aux_ctrl_register_consumer                        contiki-srf06-cc26xx.a(aux-ctrl.o)
                                                  contiki-srf06-cc26xx.a(oscillators.o)
                                                  contiki-srf06-cc26xx.a(lpm.o)
aux_ctrl_unregister_consumer                      contiki-srf06-cc26xx.a(aux-ctrl.o)
                                                  contiki-srf06-cc26xx.a(oscillators.o)
batmon_sensor                                     contiki-srf06-cc26xx.a(batmon-sensor.o)
                                                  cc26xx-data-collection.co
bmp_280_sensor                                    contiki-srf06-cc26xx.a(bmp-280-sensor.)
                                                  contiki-srf06-cc26xx.a(board.o)
                                                  contiki-srf06-cc26xx.a(sensortag-senso)
                                                  cc26xx-data-collection.co
board_i2c_read                                    contiki-srf06-cc26xx.a(board-i2c.o)
                                                  contiki-srf06-cc26xx.a(hdc-1000-sensor)
board_i2c_select                                  contiki-srf06-cc26xx.a(board-i2c.o)
                                                  contiki-srf06-cc26xx.a(mpu-9250-sensor)
                                                  contiki-srf06-cc26xx.a(hdc-1000-sensor)
                                                  contiki-srf06-cc26xx.a(opt-3001-sensor)
                                                  contiki-srf06-cc26xx.a(tmp-007-sensor.)
                                                  contiki-srf06-cc26xx.a(bmp-280-sensor.)
board_i2c_shutdown                                contiki-srf06-cc26xx.a(board-i2c.o)
                                                  contiki-srf06-cc26xx.a(board.o)
board_i2c_wakeup                                  contiki-srf06-cc26xx.a(board-i2c.o)
                                                  contiki-srf06-cc26xx.a(board.o)
board_i2c_write                                   contiki-srf06-cc26xx.a(board-i2c.o)
                                                  contiki-srf06-cc26xx.a(sensor-common.o)
board_i2c_write_read                              contiki-srf06-cc26xx.a(board-i2c.o)
                                                  contiki-srf06-cc26xx.a(sensor-common.o)
board_i2c_write_single                            contiki-srf06-cc26xx.a(board-i2c.o)
                                                  contiki-srf06-cc26xx.a(hdc-1000-sensor)
board_init                                        contiki-srf06-cc26xx.a(board.o)
                                                  contiki-srf06-cc26xx.a(contiki-main.o)
board_spi_close                                   contiki-srf06-cc26xx.a(board-spi.o)
                                                  contiki-srf06-cc26xx.a(ext-flash.o)
board_spi_flush                                   contiki-srf06-cc26xx.a(board-spi.o)
                                                  contiki-srf06-cc26xx.a(ext-flash.o)
board_spi_open                                    contiki-srf06-cc26xx.a(board-spi.o)
                                                  contiki-srf06-cc26xx.a(ext-flash.o)
board_spi_read                                    contiki-srf06-cc26xx.a(board-spi.o)
                                                  contiki-srf06-cc26xx.a(ext-flash.o)
board_spi_write                                   contiki-srf06-cc26xx.a(board-spi.o)
                                                  contiki-srf06-cc26xx.a(ext-flash.o)
broadcast_announcement_beacon_interval            contiki-srf06-cc26xx.a(broadcast-annou)
broadcast_announcement_init                       contiki-srf06-cc26xx.a(broadcast-annou)
                                                  contiki-srf06-cc26xx.a(rime.o)
broadcast_announcement_stop                       contiki-srf06-cc26xx.a(broadcast-annou)
broadcast_close                                   contiki-srf06-cc26xx.a(broadcast.o)
                                                  contiki-srf06-cc26xx.a(broadcast-annou)
                                                  cc26xx-data-collection.co
broadcast_open                                    contiki-srf06-cc26xx.a(broadcast.o)
                                                  contiki-srf06-cc26xx.a(broadcast-annou)
                                                  cc26xx-data-collection.co
broadcast_send                                    contiki-srf06-cc26xx.a(broadcast.o)
                                                  contiki-srf06-cc26xx.a(broadcast-annou)
                                                  cc26xx-data-collection.co
button_left_sensor                                contiki-srf06-cc26xx.a(button-sensor.o)
                                                  contiki-srf06-cc26xx.a(sensortag-senso)
                                                  cc26xx-data-collection.co
button_right_sensor                               contiki-srf06-cc26xx.a(button-sensor.o)
                                                  contiki-srf06-cc26xx.a(sensortag-senso)
                                                  cc26xx-data-collection.co
buzzer_init                                       contiki-srf06-cc26xx.a(buzzer.o)
                                                  contiki-srf06-cc26xx.a(board.o)
buzzer_start                                      contiki-srf06-cc26xx.a(buzzer.o)
                                                  cc26xx-data-collection.co
buzzer_state                                      contiki-srf06-cc26xx.a(buzzer.o)
                                                  cc26xx-data-collection.co
buzzer_stop                                       contiki-srf06-cc26xx.a(buzzer.o)
                                                  contiki-srf06-cc26xx.a(board.o)
                                                  cc26xx-data-collection.co
cc26xx_data_collection_loop_interval              cc26xx-data-collection.co
cc26xx_data_collection_process                    cc26xx-data-collection.co
cc26xx_uart_busy                                  contiki-srf06-cc26xx.a(cc26xx-uart.o)
                                                  contiki-srf06-cc26xx.a(putchar.o)
cc26xx_uart_init                                  contiki-srf06-cc26xx.a(cc26xx-uart.o)
                                                  contiki-srf06-cc26xx.a(contiki-main.o)
cc26xx_uart_set_input                             contiki-srf06-cc26xx.a(cc26xx-uart.o)
                                                  cc26xx-data-collection.co
cc26xx_uart_write_byte                            contiki-srf06-cc26xx.a(cc26xx-uart.o)
                                                  contiki-srf06-cc26xx.a(putchar.o)
cfs_close                                         contiki-srf06-cc26xx.a(cfs-coffee.o)
                                                  cc26xx-data-collection.co
cfs_closedir                                      contiki-srf06-cc26xx.a(cfs-coffee.o)
cfs_coffee_configure_log                          contiki-srf06-cc26xx.a(cfs-coffee.o)
cfs_coffee_format                                 contiki-srf06-cc26xx.a(cfs-coffee.o)
cfs_coffee_reserve                                contiki-srf06-cc26xx.a(cfs-coffee.o)
                                                  cc26xx-data-collection.co
cfs_coffee_set_io_semantics                       contiki-srf06-cc26xx.a(cfs-coffee.o)
cfs_open                                          contiki-srf06-cc26xx.a(cfs-coffee.o)
                                                  cc26xx-data-collection.co
cfs_opendir                                       contiki-srf06-cc26xx.a(cfs-coffee.o)
cfs_read                                          contiki-srf06-cc26xx.a(cfs-coffee.o)
                                                  cc26xx-data-collection.co
cfs_readdir                                       contiki-srf06-cc26xx.a(cfs-coffee.o)
cfs_remove                                        contiki-srf06-cc26xx.a(cfs-coffee.o)
                                                  cc26xx-data-collection.co
cfs_seek                                          contiki-srf06-cc26xx.a(cfs-coffee.o)
                                                  cc26xx-data-collection.co
cfs_write                                         contiki-srf06-cc26xx.a(cfs-coffee.o)
                                                  cc26xx-data-collection.co
chameleon_bitopt                                  contiki-srf06-cc26xx.a(chameleon-bitop)
                                                  contiki-srf06-cc26xx.a(chameleon.o)
chameleon_create                                  contiki-srf06-cc26xx.a(chameleon.o)
                                                  contiki-srf06-cc26xx.a(rime.o)
chameleon_hdrsize                                 contiki-srf06-cc26xx.a(chameleon.o)
                                                  contiki-srf06-cc26xx.a(channel.o)
chameleon_init                                    contiki-srf06-cc26xx.a(chameleon.o)
                                                  contiki-srf06-cc26xx.a(rime.o)
chameleon_parse                                   contiki-srf06-cc26xx.a(chameleon.o)
                                                  contiki-srf06-cc26xx.a(rime.o)
channel_close                                     contiki-srf06-cc26xx.a(channel.o)
                                                  contiki-srf06-cc26xx.a(abc.o)
channel_init                                      contiki-srf06-cc26xx.a(channel.o)
                                                  contiki-srf06-cc26xx.a(chameleon.o)
channel_lookup                                    contiki-srf06-cc26xx.a(channel.o)
                                                  contiki-srf06-cc26xx.a(chameleon-bitop)
channel_open                                      contiki-srf06-cc26xx.a(channel.o)
                                                  contiki-srf06-cc26xx.a(abc.o)
channel_set_attributes                            contiki-srf06-cc26xx.a(channel.o)
                                                  contiki-srf06-cc26xx.a(abc.o)
                                                  contiki-srf06-cc26xx.a(broadcast.o)
clock_delay                                       contiki-srf06-cc26xx.a(clock.o)
                                                  contiki-srf06-cc26xx.a(leds.o)
clock_delay_usec                                  contiki-srf06-cc26xx.a(clock.o)
clock_init                                        contiki-srf06-cc26xx.a(clock.o)
                                                  contiki-srf06-cc26xx.a(contiki-main.o)
clock_seconds                                     contiki-srf06-cc26xx.a(clock.o)
                                                  cc26xx-data-collection.co
clock_time                                        contiki-srf06-cc26xx.a(clock.o)
                                                  contiki-srf06-cc26xx.a(mac-sequence.o)
                                                  contiki-srf06-cc26xx.a(timer.o)
                                                  contiki-srf06-cc26xx.a(etimer.o)
                                                  contiki-srf06-cc26xx.a(lpm.o)
                                                  contiki-srf06-cc26xx.a(button-sensor.o)
clock_update                                      contiki-srf06-cc26xx.a(clock.o)
                                                  contiki-srf06-cc26xx.a(lpm.o)
                                                  contiki-srf06-cc26xx.a(soc-rtc.o)
clock_wait                                        contiki-srf06-cc26xx.a(clock.o)
copysign                                          /usr/lib/gcc/arm-none-eabi/4.9.3/../../../arm-none-eabi/lib/armv7-m/libm.a(lib_a-s_copysign.o)
                                                  /usr/lib/gcc/arm-none-eabi/4.9.3/../../../arm-none-eabi/lib/armv7-m/libm.a(lib_a-s_scalbn.o)
csma_driver                                       contiki-srf06-cc26xx.a(csma.o)
                                                  contiki-srf06-cc26xx.a(nullsec.o)
                                                  contiki-srf06-cc26xx.a(nullrdc.o)
                                                  contiki-srf06-cc26xx.a(netstack.o)
                                                  contiki-srf06-cc26xx.a(contiki-main.o)
ctimer_expired                                    contiki-srf06-cc26xx.a(ctimer.o)
ctimer_init                                       contiki-srf06-cc26xx.a(ctimer.o)
                                                  contiki-srf06-cc26xx.a(contiki-main.o)
ctimer_process                                    contiki-srf06-cc26xx.a(ctimer.o)
ctimer_reset                                      contiki-srf06-cc26xx.a(ctimer.o)
ctimer_restart                                    contiki-srf06-cc26xx.a(ctimer.o)
ctimer_set                                        contiki-srf06-cc26xx.a(ctimer.o)
                                                  contiki-srf06-cc26xx.a(broadcast-annou)
                                                  contiki-srf06-cc26xx.a(csma.o)
                                                  contiki-srf06-cc26xx.a(ieee-mode.o)
                                                  contiki-srf06-cc26xx.a(mpu-9250-sensor)
                                                  contiki-srf06-cc26xx.a(hdc-1000-sensor)
                                                  contiki-srf06-cc26xx.a(opt-3001-sensor)
                                                  contiki-srf06-cc26xx.a(tmp-007-sensor.)
                                                  contiki-srf06-cc26xx.a(bmp-280-sensor.)
                                                  cc26xx-data-collection.co
ctimer_set_with_process                           contiki-srf06-cc26xx.a(ctimer.o)
ctimer_stop                                       contiki-srf06-cc26xx.a(ctimer.o)
                                                  contiki-srf06-cc26xx.a(broadcast-annou)
                                                  contiki-srf06-cc26xx.a(csma.o)
                                                  contiki-srf06-cc26xx.a(mpu-9250-sensor)
                                                  contiki-srf06-cc26xx.a(hdc-1000-sensor)
                                                  contiki-srf06-cc26xx.a(opt-3001-sensor)
                                                  contiki-srf06-cc26xx.a(tmp-007-sensor.)
                                                  contiki-srf06-cc26xx.a(bmp-280-sensor.)
                                                  cc26xx-data-collection.co
dbg_send_bytes                                    contiki-srf06-cc26xx.a(putchar.o)
                                                  contiki-srf06-cc26xx.a(dbg-printf.o)
delimiter                                         cc26xx-data-collection.co
energest_flush                                    contiki-srf06-cc26xx.a(energest.o)
energest_init                                     contiki-srf06-cc26xx.a(energest.o)
                                                  contiki-srf06-cc26xx.a(contiki-main.o)
energest_type_set                                 contiki-srf06-cc26xx.a(energest.o)
energest_type_time                                contiki-srf06-cc26xx.a(energest.o)
etimer_adjust                                     contiki-srf06-cc26xx.a(etimer.o)
etimer_expiration_time                            contiki-srf06-cc26xx.a(etimer.o)
etimer_expired                                    contiki-srf06-cc26xx.a(etimer.o)
                                                  contiki-srf06-cc26xx.a(rf-ble.o)
                                                  contiki-srf06-cc26xx.a(ctimer.o)
                                                  cc26xx-data-collection.co
etimer_next_expiration_time                       contiki-srf06-cc26xx.a(etimer.o)
                                                  contiki-srf06-cc26xx.a(lpm.o)
etimer_pending                                    contiki-srf06-cc26xx.a(etimer.o)
                                                  contiki-srf06-cc26xx.a(lpm.o)
                                                  contiki-srf06-cc26xx.a(clock.o)
etimer_process                                    contiki-srf06-cc26xx.a(etimer.o)
                                                  contiki-srf06-cc26xx.a(contiki-main.o)
etimer_request_poll                               contiki-srf06-cc26xx.a(etimer.o)
                                                  contiki-srf06-cc26xx.a(clock.o)
etimer_reset                                      contiki-srf06-cc26xx.a(etimer.o)
                                                  contiki-srf06-cc26xx.a(ctimer.o)
                                                  cc26xx-data-collection.co
etimer_reset_with_new_interval                    contiki-srf06-cc26xx.a(etimer.o)
etimer_restart                                    contiki-srf06-cc26xx.a(etimer.o)
                                                  contiki-srf06-cc26xx.a(ctimer.o)
etimer_set                                        contiki-srf06-cc26xx.a(etimer.o)
                                                  contiki-srf06-cc26xx.a(rf-ble.o)
                                                  contiki-srf06-cc26xx.a(ctimer.o)
                                                  cc26xx-data-collection.co
etimer_start_time                                 contiki-srf06-cc26xx.a(etimer.o)
etimer_stop                                       contiki-srf06-cc26xx.a(etimer.o)
                                                  contiki-srf06-cc26xx.a(ctimer.o)
                                                  cc26xx-data-collection.co
exp2                                              /usr/lib/gcc/arm-none-eabi/4.9.3/../../../arm-none-eabi/lib/armv7-m/libm.a(lib_a-w_exp2.o)
                                                  contiki-srf06-cc26xx.a(opt-3001-sensor)
ext_flash_close                                   contiki-srf06-cc26xx.a(ext-flash.o)
                                                  contiki-srf06-cc26xx.a(xmem.o)
ext_flash_erase                                   contiki-srf06-cc26xx.a(ext-flash.o)
                                                  contiki-srf06-cc26xx.a(xmem.o)
ext_flash_init                                    contiki-srf06-cc26xx.a(ext-flash.o)
                                                  contiki-srf06-cc26xx.a(board.o)
ext_flash_open                                    contiki-srf06-cc26xx.a(ext-flash.o)
                                                  contiki-srf06-cc26xx.a(xmem.o)
ext_flash_read                                    contiki-srf06-cc26xx.a(ext-flash.o)
                                                  contiki-srf06-cc26xx.a(xmem.o)
ext_flash_test                                    contiki-srf06-cc26xx.a(ext-flash.o)
ext_flash_write                                   contiki-srf06-cc26xx.a(ext-flash.o)
                                                  contiki-srf06-cc26xx.a(xmem.o)
fabs                                              /usr/lib/gcc/arm-none-eabi/4.9.3/../../../arm-none-eabi/lib/armv7-m/libm.a(lib_a-s_fabs.o)
                                                  /usr/lib/gcc/arm-none-eabi/4.9.3/../../../arm-none-eabi/lib/armv7-m/libm.a(lib_a-e_pow.o)
finite                                            /usr/lib/gcc/arm-none-eabi/4.9.3/../../../arm-none-eabi/lib/armv7-m/libm.a(lib_a-s_finite.o)
                                                  /usr/lib/gcc/arm-none-eabi/4.9.3/../../../arm-none-eabi/lib/armv7-m/libm.a(lib_a-w_pow.o)
format_str                                        contiki-srf06-cc26xx.a(strformat.o)
format_str_v                                      contiki-srf06-cc26xx.a(strformat.o)
                                                  contiki-srf06-cc26xx.a(dbg-printf.o)
frame802154_check_dest_panid                      contiki-srf06-cc26xx.a(frame802154.o)
frame802154_create                                contiki-srf06-cc26xx.a(frame802154.o)
                                                  contiki-srf06-cc26xx.a(framer-802154.o)
frame802154_create_fcf                            contiki-srf06-cc26xx.a(frame802154.o)
frame802154_extract_linkaddr                      contiki-srf06-cc26xx.a(frame802154.o)
frame802154_get_pan_id                            contiki-srf06-cc26xx.a(frame802154.o)
                                                  contiki-srf06-cc26xx.a(framer-802154.o)
frame802154_has_panid                             contiki-srf06-cc26xx.a(frame802154.o)
frame802154_hdrlen                                contiki-srf06-cc26xx.a(frame802154.o)
                                                  contiki-srf06-cc26xx.a(framer-802154.o)
frame802154_is_broadcast_addr                     contiki-srf06-cc26xx.a(frame802154.o)
                                                  contiki-srf06-cc26xx.a(framer-802154.o)
frame802154_parse                                 contiki-srf06-cc26xx.a(frame802154.o)
                                                  contiki-srf06-cc26xx.a(framer-802154.o)
frame802154_parse_fcf                             contiki-srf06-cc26xx.a(frame802154.o)
frame802154_set_pan_id                            contiki-srf06-cc26xx.a(frame802154.o)
framer_802154                                     contiki-srf06-cc26xx.a(framer-802154.o)
                                                  contiki-srf06-cc26xx.a(nullrdc.o)
g_pfnVectors                                      obj_srf06-cc26xx/startup_gcc.o
get_bits                                          contiki-srf06-cc26xx.a(chameleon-bitop)
gpio_interrupt_init                               contiki-srf06-cc26xx.a(gpio-interrupt.)
                                                  contiki-srf06-cc26xx.a(contiki-main.o)
gpio_interrupt_register_handler                   contiki-srf06-cc26xx.a(gpio-interrupt.)
                                                  contiki-srf06-cc26xx.a(reed-relay.o)
                                                  contiki-srf06-cc26xx.a(button-sensor.o)
hdc_1000_sensor                                   contiki-srf06-cc26xx.a(hdc-1000-sensor)
                                                  contiki-srf06-cc26xx.a(board.o)
                                                  contiki-srf06-cc26xx.a(sensortag-senso)
                                                  cc26xx-data-collection.co
ieee_addr_cpy_to                                  contiki-srf06-cc26xx.a(ieee-addr.o)
                                                  contiki-srf06-cc26xx.a(contiki-main.o)
ieee_mode_driver                                  contiki-srf06-cc26xx.a(ieee-mode.o)
                                                  contiki-srf06-cc26xx.a(rf-ble.o)
                                                  contiki-srf06-cc26xx.a(rf-core.o)
                                                  contiki-srf06-cc26xx.a(nullrdc.o)
                                                  contiki-srf06-cc26xx.a(netstack.o)
                                                  contiki-srf06-cc26xx.a(contiki-main.o)
                                                  cc26xx-data-collection.co
leds_arch_get                                     contiki-srf06-cc26xx.a(leds-arch.o)
                                                  contiki-srf06-cc26xx.a(leds.o)
leds_arch_init                                    contiki-srf06-cc26xx.a(leds-arch.o)
                                                  contiki-srf06-cc26xx.a(leds.o)
leds_arch_set                                     contiki-srf06-cc26xx.a(leds-arch.o)
                                                  contiki-srf06-cc26xx.a(leds.o)
leds_blink                                        contiki-srf06-cc26xx.a(leds.o)
leds_get                                          contiki-srf06-cc26xx.a(leds.o)
leds_init                                         contiki-srf06-cc26xx.a(leds.o)
                                                  contiki-srf06-cc26xx.a(contiki-main.o)
leds_off                                          contiki-srf06-cc26xx.a(leds.o)
                                                  contiki-srf06-cc26xx.a(contiki-main.o)
                                                  cc26xx-data-collection.co
leds_on                                           contiki-srf06-cc26xx.a(leds.o)
                                                  contiki-srf06-cc26xx.a(contiki-main.o)
                                                  cc26xx-data-collection.co
leds_set                                          contiki-srf06-cc26xx.a(leds.o)
leds_toggle                                       contiki-srf06-cc26xx.a(leds.o)
linkaddr_cmp                                      contiki-srf06-cc26xx.a(linkaddr.o)
                                                  contiki-srf06-cc26xx.a(mac-sequence.o)
                                                  contiki-srf06-cc26xx.a(nullrdc.o)
                                                  contiki-srf06-cc26xx.a(csma.o)
                                                  contiki-srf06-cc26xx.a(packetbuf.o)
linkaddr_copy                                     contiki-srf06-cc26xx.a(linkaddr.o)
                                                  contiki-srf06-cc26xx.a(frame802154.o)
                                                  contiki-srf06-cc26xx.a(framer-802154.o)
                                                  contiki-srf06-cc26xx.a(mac-sequence.o)
                                                  contiki-srf06-cc26xx.a(csma.o)
                                                  contiki-srf06-cc26xx.a(packetbuf.o)
                                                  contiki-srf06-cc26xx.a(broadcast.o)
linkaddr_node_addr                                contiki-srf06-cc26xx.a(linkaddr.o)
                                                  contiki-srf06-cc26xx.a(rf-ble.o)
                                                  contiki-srf06-cc26xx.a(nullrdc.o)
                                                  contiki-srf06-cc26xx.a(broadcast.o)
                                                  contiki-srf06-cc26xx.a(contiki-main.o)
linkaddr_null                                     contiki-srf06-cc26xx.a(linkaddr.o)
                                                  contiki-srf06-cc26xx.a(frame802154.o)
                                                  contiki-srf06-cc26xx.a(packetbuf.o)
linkaddr_set_node_addr                            contiki-srf06-cc26xx.a(linkaddr.o)
list_add                                          contiki-srf06-cc26xx.a(list.o)
                                                  contiki-srf06-cc26xx.a(announcement.o)
                                                  contiki-srf06-cc26xx.a(aux-ctrl.o)
                                                  contiki-srf06-cc26xx.a(csma.o)
                                                  contiki-srf06-cc26xx.a(rime.o)
                                                  contiki-srf06-cc26xx.a(channel.o)
                                                  contiki-srf06-cc26xx.a(ctimer.o)
                                                  contiki-srf06-cc26xx.a(lpm.o)
list_chop                                         contiki-srf06-cc26xx.a(list.o)
list_copy                                         contiki-srf06-cc26xx.a(list.o)
list_head                                         contiki-srf06-cc26xx.a(list.o)
                                                  contiki-srf06-cc26xx.a(announcement.o)
                                                  contiki-srf06-cc26xx.a(aux-ctrl.o)
                                                  contiki-srf06-cc26xx.a(csma.o)
                                                  contiki-srf06-cc26xx.a(rime.o)
                                                  contiki-srf06-cc26xx.a(channel.o)
                                                  contiki-srf06-cc26xx.a(ctimer.o)
                                                  contiki-srf06-cc26xx.a(lpm.o)
list_init                                         contiki-srf06-cc26xx.a(list.o)
                                                  contiki-srf06-cc26xx.a(announcement.o)
                                                  contiki-srf06-cc26xx.a(csma.o)
                                                  contiki-srf06-cc26xx.a(channel.o)
                                                  contiki-srf06-cc26xx.a(ctimer.o)
                                                  contiki-srf06-cc26xx.a(lpm.o)
list_insert                                       contiki-srf06-cc26xx.a(list.o)
list_item_next                                    contiki-srf06-cc26xx.a(list.o)
                                                  contiki-srf06-cc26xx.a(announcement.o)
                                                  contiki-srf06-cc26xx.a(broadcast-annou)
                                                  contiki-srf06-cc26xx.a(csma.o)
                                                  contiki-srf06-cc26xx.a(rime.o)
                                                  contiki-srf06-cc26xx.a(channel.o)
list_length                                       contiki-srf06-cc26xx.a(list.o)
                                                  contiki-srf06-cc26xx.a(csma.o)
list_pop                                          contiki-srf06-cc26xx.a(list.o)
list_push                                         contiki-srf06-cc26xx.a(list.o)
                                                  contiki-srf06-cc26xx.a(csma.o)
list_remove                                       contiki-srf06-cc26xx.a(list.o)
                                                  contiki-srf06-cc26xx.a(announcement.o)
                                                  contiki-srf06-cc26xx.a(aux-ctrl.o)
                                                  contiki-srf06-cc26xx.a(csma.o)
                                                  contiki-srf06-cc26xx.a(rime.o)
                                                  contiki-srf06-cc26xx.a(channel.o)
                                                  contiki-srf06-cc26xx.a(ctimer.o)
                                                  contiki-srf06-cc26xx.a(lpm.o)
list_tail                                         contiki-srf06-cc26xx.a(list.o)
lpm_drop                                          contiki-srf06-cc26xx.a(lpm.o)
                                                  contiki-srf06-cc26xx.a(contiki-main.o)
lpm_init                                          contiki-srf06-cc26xx.a(lpm.o)
                                                  contiki-srf06-cc26xx.a(contiki-main.o)
lpm_pin_set_default_state                         contiki-srf06-cc26xx.a(lpm.o)
                                                  contiki-srf06-cc26xx.a(cc26xx-uart.o)
lpm_register_module                               contiki-srf06-cc26xx.a(lpm.o)
                                                  contiki-srf06-cc26xx.a(soc-trng.o)
                                                  contiki-srf06-cc26xx.a(ieee-mode.o)
                                                  contiki-srf06-cc26xx.a(cc26xx-uart.o)
                                                  contiki-srf06-cc26xx.a(board.o)
                                                  contiki-srf06-cc26xx.a(buzzer.o)
lpm_shutdown                                      contiki-srf06-cc26xx.a(lpm.o)
lpm_sleep                                         contiki-srf06-cc26xx.a(lpm.o)
                                                  contiki-srf06-cc26xx.a(ieee-mode.o)
lpm_unregister_module                             contiki-srf06-cc26xx.a(lpm.o)
                                                  contiki-srf06-cc26xx.a(soc-trng.o)
                                                  contiki-srf06-cc26xx.a(buzzer.o)
mac_call_sent_callback                            contiki-srf06-cc26xx.a(mac.o)
                                                  contiki-srf06-cc26xx.a(nullrdc.o)
                                                  contiki-srf06-cc26xx.a(csma.o)
mac_sequence_is_duplicate                         contiki-srf06-cc26xx.a(mac-sequence.o)
                                                  contiki-srf06-cc26xx.a(nullrdc.o)
mac_sequence_register_seqno                       contiki-srf06-cc26xx.a(mac-sequence.o)
                                                  contiki-srf06-cc26xx.a(nullrdc.o)
mag_init                                          contiki-srf06-cc26xx.a(mpu-9250-sensor)
mag_read                                          contiki-srf06-cc26xx.a(mpu-9250-sensor)
main                                              contiki-srf06-cc26xx.a(contiki-main.o)
                                                  obj_srf06-cc26xx/startup_gcc.o
matherr                                           /usr/lib/gcc/arm-none-eabi/4.9.3/../../../arm-none-eabi/lib/armv7-m/libm.a(lib_a-s_matherr.o)
                                                  /usr/lib/gcc/arm-none-eabi/4.9.3/../../../arm-none-eabi/lib/armv7-m/libm.a(lib_a-w_pow.o)
memb_alloc                                        contiki-srf06-cc26xx.a(memb.o)
                                                  contiki-srf06-cc26xx.a(csma.o)
                                                  contiki-srf06-cc26xx.a(queuebuf.o)
memb_free                                         contiki-srf06-cc26xx.a(memb.o)
                                                  contiki-srf06-cc26xx.a(csma.o)
                                                  contiki-srf06-cc26xx.a(queuebuf.o)
memb_init                                         contiki-srf06-cc26xx.a(memb.o)
                                                  contiki-srf06-cc26xx.a(csma.o)
                                                  contiki-srf06-cc26xx.a(queuebuf.o)
memb_inmemb                                       contiki-srf06-cc26xx.a(memb.o)
                                                  contiki-srf06-cc26xx.a(queuebuf.o)
memb_numfree                                      contiki-srf06-cc26xx.a(memb.o)
                                                  contiki-srf06-cc26xx.a(queuebuf.o)
memcmp                                            /usr/lib/gcc/arm-none-eabi/4.9.3/../../../arm-none-eabi/lib/armv7-m/libc.a(lib_a-memcmp.o)
                                                  contiki-srf06-cc26xx.a(linkaddr.o)
memcpy                                            /usr/lib/gcc/arm-none-eabi/4.9.3/../../../arm-none-eabi/lib/armv7-m/libc.a(lib_a-memcpy.o)
                                                  contiki-srf06-cc26xx.a(rf-ble.o)
                                                  contiki-srf06-cc26xx.a(packetbuf.o)
                                                  contiki-srf06-cc26xx.a(ieee-mode.o)
                                                  contiki-srf06-cc26xx.a(cfs-coffee.o)
memset                                            /usr/lib/gcc/arm-none-eabi/4.9.3/../../../arm-none-eabi/lib/armv7-m/libc.a(lib_a-memset.o)
                                                  contiki-srf06-cc26xx.a(chameleon-bitop)
                                                  contiki-srf06-cc26xx.a(framer-802154.o)
                                                  contiki-srf06-cc26xx.a(memb.o)
                                                  contiki-srf06-cc26xx.a(rf-ble.o)
                                                  contiki-srf06-cc26xx.a(rf-core.o)
                                                  contiki-srf06-cc26xx.a(packetbuf.o)
                                                  contiki-srf06-cc26xx.a(ieee-mode.o)
                                                  contiki-srf06-cc26xx.a(cfs-coffee.o)
mpu_9250_sensor                                   contiki-srf06-cc26xx.a(mpu-9250-sensor)
                                                  contiki-srf06-cc26xx.a(board.o)
                                                  contiki-srf06-cc26xx.a(sensortag-senso)
                                                  cc26xx-data-collection.co
nan                                               /usr/lib/gcc/arm-none-eabi/4.9.3/../../../arm-none-eabi/lib/armv7-m/libm.a(lib_a-s_nan.o)
                                                  /usr/lib/gcc/arm-none-eabi/4.9.3/../../../arm-none-eabi/lib/armv7-m/libm.a(lib_a-e_pow.o)
netstack_init                                     contiki-srf06-cc26xx.a(netstack.o)
                                                  contiki-srf06-cc26xx.a(contiki-main.o)
node_id                                           contiki-srf06-cc26xx.a(contiki-main.o)
                                                  cc26xx-data-collection.co
nullrdc_driver                                    contiki-srf06-cc26xx.a(nullrdc.o)
                                                  contiki-srf06-cc26xx.a(rf-core.o)
                                                  contiki-srf06-cc26xx.a(csma.o)
                                                  contiki-srf06-cc26xx.a(netstack.o)
                                                  contiki-srf06-cc26xx.a(contiki-main.o)
nullsec_driver                                    contiki-srf06-cc26xx.a(nullsec.o)
                                                  contiki-srf06-cc26xx.a(csma.o)
                                                  contiki-srf06-cc26xx.a(netstack.o)
                                                  contiki-srf06-cc26xx.a(rime.o)
opt_3001_sensor                                   contiki-srf06-cc26xx.a(opt-3001-sensor)
                                                  contiki-srf06-cc26xx.a(board.o)
                                                  contiki-srf06-cc26xx.a(sensortag-senso)
                                                  cc26xx-data-collection.co
oscillators_request_hf_xosc                       contiki-srf06-cc26xx.a(oscillators.o)
                                                  contiki-srf06-cc26xx.a(rf-ble.o)
                                                  contiki-srf06-cc26xx.a(ieee-mode.o)
oscillators_select_lf_rcosc                       contiki-srf06-cc26xx.a(oscillators.o)
                                                  contiki-srf06-cc26xx.a(lpm.o)
oscillators_select_lf_xosc                        contiki-srf06-cc26xx.a(oscillators.o)
                                                  contiki-srf06-cc26xx.a(contiki-main.o)
oscillators_switch_to_hf_rc                       contiki-srf06-cc26xx.a(oscillators.o)
                                                  contiki-srf06-cc26xx.a(rf-ble.o)
                                                  contiki-srf06-cc26xx.a(ieee-mode.o)
                                                  contiki-srf06-cc26xx.a(lpm.o)
oscillators_switch_to_hf_xosc                     contiki-srf06-cc26xx.a(oscillators.o)
                                                  contiki-srf06-cc26xx.a(rf-ble.o)
                                                  contiki-srf06-cc26xx.a(ieee-mode.o)
packetbuf_addr                                    contiki-srf06-cc26xx.a(packetbuf.o)
                                                  contiki-srf06-cc26xx.a(chameleon-bitop)
                                                  contiki-srf06-cc26xx.a(framer-802154.o)
                                                  contiki-srf06-cc26xx.a(mac-sequence.o)
                                                  contiki-srf06-cc26xx.a(nullrdc.o)
                                                  contiki-srf06-cc26xx.a(csma.o)
                                                  contiki-srf06-cc26xx.a(broadcast.o)
packetbuf_addrs                                   contiki-srf06-cc26xx.a(packetbuf.o)
packetbuf_attr                                    contiki-srf06-cc26xx.a(packetbuf.o)
                                                  contiki-srf06-cc26xx.a(chameleon-bitop)
                                                  contiki-srf06-cc26xx.a(framer-802154.o)
                                                  contiki-srf06-cc26xx.a(mac-sequence.o)
                                                  contiki-srf06-cc26xx.a(csma.o)
packetbuf_attr_clear                              contiki-srf06-cc26xx.a(packetbuf.o)
packetbuf_attr_copyfrom                           contiki-srf06-cc26xx.a(packetbuf.o)
                                                  contiki-srf06-cc26xx.a(queuebuf.o)
packetbuf_attr_copyto                             contiki-srf06-cc26xx.a(packetbuf.o)
                                                  contiki-srf06-cc26xx.a(queuebuf.o)
packetbuf_attrs                                   contiki-srf06-cc26xx.a(packetbuf.o)
packetbuf_clear                                   contiki-srf06-cc26xx.a(packetbuf.o)
                                                  contiki-srf06-cc26xx.a(broadcast-annou)
                                                  contiki-srf06-cc26xx.a(rf-core.o)
                                                  contiki-srf06-cc26xx.a(rime.o)
packetbuf_compact                                 contiki-srf06-cc26xx.a(packetbuf.o)
                                                  contiki-srf06-cc26xx.a(rime.o)
packetbuf_copyfrom                                contiki-srf06-cc26xx.a(packetbuf.o)
                                                  contiki-srf06-cc26xx.a(queuebuf.o)
                                                  cc26xx-data-collection.co
packetbuf_copyto                                  contiki-srf06-cc26xx.a(packetbuf.o)
                                                  contiki-srf06-cc26xx.a(queuebuf.o)
packetbuf_datalen                                 contiki-srf06-cc26xx.a(packetbuf.o)
                                                  contiki-srf06-cc26xx.a(framer-802154.o)
                                                  contiki-srf06-cc26xx.a(broadcast-annou)
                                                  contiki-srf06-cc26xx.a(nullrdc.o)
packetbuf_dataptr                                 contiki-srf06-cc26xx.a(packetbuf.o)
                                                  contiki-srf06-cc26xx.a(chameleon-bitop)
                                                  contiki-srf06-cc26xx.a(framer-802154.o)
                                                  contiki-srf06-cc26xx.a(broadcast-annou)
                                                  contiki-srf06-cc26xx.a(rf-core.o)
                                                  cc26xx-data-collection.co
packetbuf_hdralloc                                contiki-srf06-cc26xx.a(packetbuf.o)
                                                  contiki-srf06-cc26xx.a(chameleon-bitop)
                                                  contiki-srf06-cc26xx.a(framer-802154.o)
packetbuf_hdrlen                                  contiki-srf06-cc26xx.a(packetbuf.o)
packetbuf_hdrptr                                  contiki-srf06-cc26xx.a(packetbuf.o)
                                                  contiki-srf06-cc26xx.a(chameleon-bitop)
                                                  contiki-srf06-cc26xx.a(framer-802154.o)
                                                  contiki-srf06-cc26xx.a(nullrdc.o)
packetbuf_hdrreduce                               contiki-srf06-cc26xx.a(packetbuf.o)
                                                  contiki-srf06-cc26xx.a(chameleon-bitop)
                                                  contiki-srf06-cc26xx.a(framer-802154.o)
packetbuf_holds_broadcast                         contiki-srf06-cc26xx.a(packetbuf.o)
                                                  contiki-srf06-cc26xx.a(framer-802154.o)
                                                  contiki-srf06-cc26xx.a(nullrdc.o)
packetbuf_remaininglen                            contiki-srf06-cc26xx.a(packetbuf.o)
packetbuf_set_addr                                contiki-srf06-cc26xx.a(packetbuf.o)
                                                  contiki-srf06-cc26xx.a(chameleon-bitop)
                                                  contiki-srf06-cc26xx.a(framer-802154.o)
                                                  contiki-srf06-cc26xx.a(nullrdc.o)
                                                  contiki-srf06-cc26xx.a(broadcast.o)
packetbuf_set_attr                                contiki-srf06-cc26xx.a(packetbuf.o)
                                                  contiki-srf06-cc26xx.a(chameleon-bitop)
                                                  contiki-srf06-cc26xx.a(framer-802154.o)
                                                  contiki-srf06-cc26xx.a(chameleon.o)
                                                  contiki-srf06-cc26xx.a(nullsec.o)
                                                  contiki-srf06-cc26xx.a(nullrdc.o)
                                                  contiki-srf06-cc26xx.a(csma.o)
                                                  contiki-srf06-cc26xx.a(ieee-mode.o)
packetbuf_set_datalen                             contiki-srf06-cc26xx.a(packetbuf.o)
                                                  contiki-srf06-cc26xx.a(broadcast-annou)
                                                  contiki-srf06-cc26xx.a(rf-core.o)
packetbuf_totlen                                  contiki-srf06-cc26xx.a(packetbuf.o)
                                                  contiki-srf06-cc26xx.a(nullrdc.o)
pow                                               /usr/lib/gcc/arm-none-eabi/4.9.3/../../../arm-none-eabi/lib/armv7-m/libm.a(lib_a-w_pow.o)
                                                  /usr/lib/gcc/arm-none-eabi/4.9.3/../../../arm-none-eabi/lib/armv7-m/libm.a(lib_a-w_exp2.o)
power_test                                        contiki-srf06-cc26xx.a(mpu-9250-sensor)
printf                                            contiki-srf06-cc26xx.a(dbg-printf.o)
                                                  contiki-srf06-cc26xx.a(contiki-main.o)
                                                  cc26xx-data-collection.co
process_alloc_event                               contiki-srf06-cc26xx.a(process.o)
                                                  contiki-srf06-cc26xx.a(serial-line.o)
                                                  contiki-srf06-cc26xx.a(soc-trng.o)
                                                  contiki-srf06-cc26xx.a(sensors.o)
process_current                                   contiki-srf06-cc26xx.a(process.o)
                                                  contiki-srf06-cc26xx.a(serial-line.o)
                                                  contiki-srf06-cc26xx.a(etimer.o)
                                                  contiki-srf06-cc26xx.a(ctimer.o)
process_exit                                      contiki-srf06-cc26xx.a(process.o)
                                                  contiki-srf06-cc26xx.a(rf-ble.o)
                                                  contiki-srf06-cc26xx.a(autostart.o)
process_init                                      contiki-srf06-cc26xx.a(process.o)
                                                  contiki-srf06-cc26xx.a(contiki-main.o)
process_is_running                                contiki-srf06-cc26xx.a(process.o)
process_list                                      contiki-srf06-cc26xx.a(process.o)
process_nevents                                   contiki-srf06-cc26xx.a(process.o)
                                                  contiki-srf06-cc26xx.a(lpm.o)
process_poll                                      contiki-srf06-cc26xx.a(process.o)
                                                  contiki-srf06-cc26xx.a(rf-core.o)
                                                  contiki-srf06-cc26xx.a(serial-line.o)
                                                  contiki-srf06-cc26xx.a(etimer.o)
                                                  contiki-srf06-cc26xx.a(ieee-mode.o)
                                                  contiki-srf06-cc26xx.a(sensors.o)
process_post                                      contiki-srf06-cc26xx.a(process.o)
                                                  contiki-srf06-cc26xx.a(serial-line.o)
                                                  contiki-srf06-cc26xx.a(etimer.o)
                                                  contiki-srf06-cc26xx.a(soc-trng.o)
                                                  contiki-srf06-cc26xx.a(sensors.o)
                                                  cc26xx-data-collection.co
process_post_synch                                contiki-srf06-cc26xx.a(process.o)
process_run                                       contiki-srf06-cc26xx.a(process.o)
                                                  contiki-srf06-cc26xx.a(contiki-main.o)
process_start                                     contiki-srf06-cc26xx.a(process.o)
                                                  contiki-srf06-cc26xx.a(rf-ble.o)
                                                  contiki-srf06-cc26xx.a(serial-line.o)
                                                  contiki-srf06-cc26xx.a(ctimer.o)
                                                  contiki-srf06-cc26xx.a(autostart.o)
                                                  contiki-srf06-cc26xx.a(soc-trng.o)
                                                  contiki-srf06-cc26xx.a(ieee-mode.o)
                                                  contiki-srf06-cc26xx.a(contiki-main.o)
                                                  cc26xx-data-collection.co
putchar                                           contiki-srf06-cc26xx.a(putchar.o)
                                                  contiki-srf06-cc26xx.a(contiki-main.o)
puts                                              contiki-srf06-cc26xx.a(putchar.o)
                                                  contiki-srf06-cc26xx.a(rf-core.o)
                                                  contiki-srf06-cc26xx.a(contiki-main.o)
                                                  cc26xx-data-collection.co
queuebuf_addr                                     contiki-srf06-cc26xx.a(queuebuf.o)
queuebuf_attr                                     contiki-srf06-cc26xx.a(queuebuf.o)
                                                  contiki-srf06-cc26xx.a(csma.o)
queuebuf_datalen                                  contiki-srf06-cc26xx.a(queuebuf.o)
queuebuf_dataptr                                  contiki-srf06-cc26xx.a(queuebuf.o)
queuebuf_debug_print                              contiki-srf06-cc26xx.a(queuebuf.o)
queuebuf_free                                     contiki-srf06-cc26xx.a(queuebuf.o)
                                                  contiki-srf06-cc26xx.a(csma.o)
queuebuf_init                                     contiki-srf06-cc26xx.a(queuebuf.o)
                                                  contiki-srf06-cc26xx.a(rime.o)
queuebuf_new_from_packetbuf                       contiki-srf06-cc26xx.a(queuebuf.o)
                                                  contiki-srf06-cc26xx.a(csma.o)
queuebuf_numfree                                  contiki-srf06-cc26xx.a(queuebuf.o)
queuebuf_to_packetbuf                             contiki-srf06-cc26xx.a(queuebuf.o)
                                                  contiki-srf06-cc26xx.a(nullrdc.o)
queuebuf_update_attr_from_packetbuf               contiki-srf06-cc26xx.a(queuebuf.o)
                                                  contiki-srf06-cc26xx.a(csma.o)
queuebuf_update_from_packetbuf                    contiki-srf06-cc26xx.a(queuebuf.o)
random_init                                       contiki-srf06-cc26xx.a(random.o)
                                                  contiki-srf06-cc26xx.a(contiki-main.o)
random_rand                                       contiki-srf06-cc26xx.a(random.o)
                                                  contiki-srf06-cc26xx.a(framer-802154.o)
                                                  contiki-srf06-cc26xx.a(broadcast-annou)
                                                  contiki-srf06-cc26xx.a(csma.o)
rat_offset                                        contiki-srf06-cc26xx.a(rf-core.o)
                                                  contiki-srf06-cc26xx.a(ieee-mode.o)
record_timestamp                                  cc26xx-data-collection.co
reed_relay_sensor                                 contiki-srf06-cc26xx.a(reed-relay.o)
                                                  contiki-srf06-cc26xx.a(sensortag-senso)
                                                  cc26xx-data-collection.co
rf_ble_beacon_process                             contiki-srf06-cc26xx.a(rf-ble.o)
rf_ble_beacond_config                             contiki-srf06-cc26xx.a(rf-ble.o)
rf_ble_beacond_start                              contiki-srf06-cc26xx.a(rf-ble.o)
rf_ble_beacond_stop                               contiki-srf06-cc26xx.a(rf-ble.o)
rf_ble_is_active                                  contiki-srf06-cc26xx.a(rf-ble.o)
                                                  contiki-srf06-cc26xx.a(ieee-mode.o)
rf_core_boot                                      contiki-srf06-cc26xx.a(rf-core.o)
                                                  contiki-srf06-cc26xx.a(rf-ble.o)
                                                  contiki-srf06-cc26xx.a(ieee-mode.o)
rf_core_cmd_done_dis                              contiki-srf06-cc26xx.a(rf-core.o)
                                                  contiki-srf06-cc26xx.a(ieee-mode.o)
rf_core_cmd_done_en                               contiki-srf06-cc26xx.a(rf-core.o)
                                                  contiki-srf06-cc26xx.a(ieee-mode.o)
rf_core_get_last_radio_op                         contiki-srf06-cc26xx.a(rf-core.o)
                                                  contiki-srf06-cc26xx.a(ieee-mode.o)
rf_core_init_radio_op                             contiki-srf06-cc26xx.a(rf-core.o)
                                                  contiki-srf06-cc26xx.a(rf-ble.o)
                                                  contiki-srf06-cc26xx.a(ieee-mode.o)
rf_core_is_accessible                             contiki-srf06-cc26xx.a(rf-core.o)
                                                  contiki-srf06-cc26xx.a(rf-ble.o)
                                                  contiki-srf06-cc26xx.a(ieee-mode.o)
rf_core_power_down                                contiki-srf06-cc26xx.a(rf-core.o)
                                                  contiki-srf06-cc26xx.a(rf-ble.o)
                                                  contiki-srf06-cc26xx.a(ieee-mode.o)
rf_core_power_up                                  contiki-srf06-cc26xx.a(rf-core.o)
rf_core_primary_mode_abort                        contiki-srf06-cc26xx.a(rf-core.o)
                                                  contiki-srf06-cc26xx.a(rf-ble.o)
rf_core_primary_mode_register                     contiki-srf06-cc26xx.a(rf-core.o)
                                                  contiki-srf06-cc26xx.a(ieee-mode.o)
rf_core_primary_mode_restore                      contiki-srf06-cc26xx.a(rf-core.o)
                                                  contiki-srf06-cc26xx.a(rf-ble.o)
rf_core_process                                   contiki-srf06-cc26xx.a(rf-core.o)
                                                  contiki-srf06-cc26xx.a(ieee-mode.o)
rf_core_restart_rat                               contiki-srf06-cc26xx.a(rf-core.o)
                                                  contiki-srf06-cc26xx.a(ieee-mode.o)
rf_core_send_cmd                                  contiki-srf06-cc26xx.a(rf-core.o)
                                                  contiki-srf06-cc26xx.a(rf-ble.o)
                                                  contiki-srf06-cc26xx.a(ieee-mode.o)
rf_core_set_modesel                               contiki-srf06-cc26xx.a(rf-core.o)
                                                  contiki-srf06-cc26xx.a(ieee-mode.o)
rf_core_setup_interrupts                          contiki-srf06-cc26xx.a(rf-core.o)
                                                  contiki-srf06-cc26xx.a(ieee-mode.o)
rf_core_start_rat                                 contiki-srf06-cc26xx.a(rf-core.o)
rf_core_stop_rat                                  contiki-srf06-cc26xx.a(rf-core.o)
rf_core_wait_cmd_done                             contiki-srf06-cc26xx.a(rf-core.o)
                                                  contiki-srf06-cc26xx.a(rf-ble.o)
                                                  contiki-srf06-cc26xx.a(ieee-mode.o)
rime_driver                                       contiki-srf06-cc26xx.a(rime.o)
                                                  contiki-srf06-cc26xx.a(nullsec.o)
                                                  contiki-srf06-cc26xx.a(netstack.o)
                                                  contiki-srf06-cc26xx.a(contiki-main.o)
rime_output                                       contiki-srf06-cc26xx.a(rime.o)
                                                  contiki-srf06-cc26xx.a(abc.o)
rime_sniffer_add                                  contiki-srf06-cc26xx.a(rime.o)
rime_sniffer_remove                               contiki-srf06-cc26xx.a(rime.o)
ringbuf_elements                                  contiki-srf06-cc26xx.a(ringbuf.o)
ringbuf_get                                       contiki-srf06-cc26xx.a(ringbuf.o)
                                                  contiki-srf06-cc26xx.a(serial-line.o)
ringbuf_init                                      contiki-srf06-cc26xx.a(ringbuf.o)
                                                  contiki-srf06-cc26xx.a(serial-line.o)
ringbuf_put                                       contiki-srf06-cc26xx.a(ringbuf.o)
                                                  contiki-srf06-cc26xx.a(serial-line.o)
ringbuf_size                                      contiki-srf06-cc26xx.a(ringbuf.o)
rint                                              /usr/lib/gcc/arm-none-eabi/4.9.3/../../../arm-none-eabi/lib/armv7-m/libm.a(lib_a-s_rint.o)
                                                  /usr/lib/gcc/arm-none-eabi/4.9.3/../../../arm-none-eabi/lib/armv7-m/libm.a(lib_a-w_pow.o)
rtimer_arch_init                                  contiki-srf06-cc26xx.a(rtimer-arch.o)
                                                  contiki-srf06-cc26xx.a(rtimer.o)
rtimer_arch_now                                   contiki-srf06-cc26xx.a(rtimer-arch.o)
                                                  contiki-srf06-cc26xx.a(nullrdc.o)
                                                  contiki-srf06-cc26xx.a(ieee-mode.o)
                                                  contiki-srf06-cc26xx.a(lpm.o)
                                                  contiki-srf06-cc26xx.a(soc-rtc.o)
                                                  contiki-srf06-cc26xx.a(board-i2c.o)
                                                  contiki-srf06-cc26xx.a(mpu-9250-sensor)
rtimer_arch_schedule                              contiki-srf06-cc26xx.a(rtimer-arch.o)
                                                  contiki-srf06-cc26xx.a(rtimer.o)
rtimer_init                                       contiki-srf06-cc26xx.a(rtimer.o)
                                                  contiki-srf06-cc26xx.a(contiki-main.o)
rtimer_run_next                                   contiki-srf06-cc26xx.a(rtimer.o)
                                                  contiki-srf06-cc26xx.a(soc-rtc.o)
rtimer_set                                        contiki-srf06-cc26xx.a(rtimer.o)
scalbn                                            /usr/lib/gcc/arm-none-eabi/4.9.3/../../../arm-none-eabi/lib/armv7-m/libm.a(lib_a-s_scalbn.o)
                                                  /usr/lib/gcc/arm-none-eabi/4.9.3/../../../arm-none-eabi/lib/armv7-m/libm.a(lib_a-e_pow.o)
sensor_common_read_reg                            contiki-srf06-cc26xx.a(sensor-common.o)
                                                  contiki-srf06-cc26xx.a(mpu-9250-sensor)
                                                  contiki-srf06-cc26xx.a(opt-3001-sensor)
                                                  contiki-srf06-cc26xx.a(tmp-007-sensor.)
                                                  contiki-srf06-cc26xx.a(bmp-280-sensor.)
sensor_common_set_error_data                      contiki-srf06-cc26xx.a(sensor-common.o)
                                                  contiki-srf06-cc26xx.a(mpu-9250-sensor)
                                                  contiki-srf06-cc26xx.a(opt-3001-sensor)
                                                  contiki-srf06-cc26xx.a(tmp-007-sensor.)
                                                  contiki-srf06-cc26xx.a(bmp-280-sensor.)
sensor_common_write_reg                           contiki-srf06-cc26xx.a(sensor-common.o)
                                                  contiki-srf06-cc26xx.a(mpu-9250-sensor)
                                                  contiki-srf06-cc26xx.a(hdc-1000-sensor)
                                                  contiki-srf06-cc26xx.a(opt-3001-sensor)
                                                  contiki-srf06-cc26xx.a(tmp-007-sensor.)
                                                  contiki-srf06-cc26xx.a(bmp-280-sensor.)
sensors                                           contiki-srf06-cc26xx.a(sensortag-senso)
                                                  contiki-srf06-cc26xx.a(sensors.o)
sensors_changed                                   contiki-srf06-cc26xx.a(sensors.o)
                                                  contiki-srf06-cc26xx.a(reed-relay.o)
                                                  contiki-srf06-cc26xx.a(button-sensor.o)
                                                  contiki-srf06-cc26xx.a(mpu-9250-sensor)
                                                  contiki-srf06-cc26xx.a(hdc-1000-sensor)
                                                  contiki-srf06-cc26xx.a(opt-3001-sensor)
                                                  contiki-srf06-cc26xx.a(tmp-007-sensor.)
                                                  contiki-srf06-cc26xx.a(bmp-280-sensor.)
sensors_event                                     contiki-srf06-cc26xx.a(sensors.o)
                                                  cc26xx-data-collection.co
sensors_find                                      contiki-srf06-cc26xx.a(sensors.o)
sensors_first                                     contiki-srf06-cc26xx.a(sensors.o)
sensors_flags                                     contiki-srf06-cc26xx.a(sensortag-senso)
                                                  contiki-srf06-cc26xx.a(sensors.o)
sensors_next                                      contiki-srf06-cc26xx.a(sensors.o)
sensors_process                                   contiki-srf06-cc26xx.a(sensors.o)
                                                  contiki-srf06-cc26xx.a(contiki-main.o)
serial_line_event_message                         contiki-srf06-cc26xx.a(serial-line.o)
                                                  cc26xx-data-collection.co
serial_line_init                                  contiki-srf06-cc26xx.a(serial-line.o)
                                                  contiki-srf06-cc26xx.a(contiki-main.o)
                                                  cc26xx-data-collection.co
serial_line_input_byte                            contiki-srf06-cc26xx.a(serial-line.o)
                                                  cc26xx-data-collection.co
serial_line_process                               contiki-srf06-cc26xx.a(serial-line.o)
set_bits                                          contiki-srf06-cc26xx.a(chameleon-bitop)
soc_rtc_get_next_trigger                          contiki-srf06-cc26xx.a(soc-rtc.o)
soc_rtc_init                                      contiki-srf06-cc26xx.a(soc-rtc.o)
                                                  contiki-srf06-cc26xx.a(contiki-main.o)
soc_rtc_last_isr_time                             contiki-srf06-cc26xx.a(soc-rtc.o)
                                                  contiki-srf06-cc26xx.a(lpm.o)
soc_rtc_schedule_one_shot                         contiki-srf06-cc26xx.a(soc-rtc.o)
                                                  contiki-srf06-cc26xx.a(lpm.o)
                                                  contiki-srf06-cc26xx.a(rtimer-arch.o)
soc_trng_init                                     contiki-srf06-cc26xx.a(soc-trng.o)
                                                  contiki-srf06-cc26xx.a(random.o)
soc_trng_process                                  contiki-srf06-cc26xx.a(soc-trng.o)
soc_trng_rand_asynchronous                        contiki-srf06-cc26xx.a(soc-trng.o)
soc_trng_rand_synchronous                         contiki-srf06-cc26xx.a(soc-trng.o)
                                                  contiki-srf06-cc26xx.a(random.o)
strcmp                                            /usr/lib/gcc/arm-none-eabi/4.9.3/../../../arm-none-eabi/lib/armv7-m/libc.a(lib_a-strcmp.o)
                                                  contiki-srf06-cc26xx.a(cfs-coffee.o)
strlen                                            /usr/lib/gcc/arm-none-eabi/4.9.3/../../../arm-none-eabi/lib/armv7-m/libc.a(lib_a-strlen.o)
                                                  contiki-srf06-cc26xx.a(rf-ble.o)
                                                  contiki-srf06-cc26xx.a(putchar.o)
                                                  contiki-srf06-cc26xx.a(sensors.o)
strncmp                                           /usr/lib/gcc/arm-none-eabi/4.9.3/../../../arm-none-eabi/lib/armv7-m/libc.a(lib_a-strncmp.o)
                                                  contiki-srf06-cc26xx.a(sensors.o)
strncpy                                           /usr/lib/gcc/arm-none-eabi/4.9.3/../../../arm-none-eabi/lib/armv7-m/libc.a(lib_a-strncpy.o)
                                                  contiki-srf06-cc26xx.a(cfs-coffee.o)
strtol                                            /usr/lib/gcc/arm-none-eabi/4.9.3/../../../arm-none-eabi/lib/armv7-m/libc.a(lib_a-strtol.o)
                                                  /usr/lib/gcc/arm-none-eabi/4.9.3/../../../arm-none-eabi/lib/armv7-m/libc.a(lib_a-atoi.o)
sync_data                                         cc26xx-data-collection.co
t0                                                contiki-srf06-cc26xx.a(mpu-9250-sensor)
timer_expired                                     contiki-srf06-cc26xx.a(timer.o)
                                                  contiki-srf06-cc26xx.a(etimer.o)
                                                  contiki-srf06-cc26xx.a(reed-relay.o)
                                                  contiki-srf06-cc26xx.a(button-sensor.o)
timer_remaining                                   contiki-srf06-cc26xx.a(timer.o)
timer_reset                                       contiki-srf06-cc26xx.a(timer.o)
                                                  contiki-srf06-cc26xx.a(etimer.o)
timer_restart                                     contiki-srf06-cc26xx.a(timer.o)
                                                  contiki-srf06-cc26xx.a(etimer.o)
timer_set                                         contiki-srf06-cc26xx.a(timer.o)
                                                  contiki-srf06-cc26xx.a(etimer.o)
                                                  contiki-srf06-cc26xx.a(reed-relay.o)
                                                  contiki-srf06-cc26xx.a(button-sensor.o)
tmp_007_sensor                                    contiki-srf06-cc26xx.a(tmp-007-sensor.)
                                                  contiki-srf06-cc26xx.a(board.o)
                                                  contiki-srf06-cc26xx.a(sensortag-senso)
                                                  cc26xx-data-collection.co
total_size                                        cc26xx-data-collection.co
tx_power_current                                  contiki-srf06-cc26xx.a(ieee-mode.o)
uDMAErrIntHandler                                 obj_srf06-cc26xx/startup_gcc.o
uDMAIntHandler                                    obj_srf06-cc26xx/startup_gcc.o
v1                                                cc26xx-data-collection.co
v2                                                cc26xx-data-collection.co
v3                                                cc26xx-data-collection.co
watchdog_init                                     contiki-srf06-cc26xx.a(contiki-watchdo)
                                                  contiki-srf06-cc26xx.a(contiki-main.o)
watchdog_periodic                                 contiki-srf06-cc26xx.a(contiki-watchdo)
                                                  contiki-srf06-cc26xx.a(rf-core.o)
                                                  contiki-srf06-cc26xx.a(nullrdc.o)
                                                  contiki-srf06-cc26xx.a(lpm.o)
                                                  contiki-srf06-cc26xx.a(xmem.o)
                                                  contiki-srf06-cc26xx.a(contiki-main.o)
watchdog_reboot                                   contiki-srf06-cc26xx.a(contiki-watchdo)
                                                  cc26xx-data-collection.co
watchdog_start                                    contiki-srf06-cc26xx.a(contiki-watchdo)
                                                  contiki-srf06-cc26xx.a(contiki-main.o)
watchdog_stop                                     contiki-srf06-cc26xx.a(contiki-watchdo)
x                                                 cc26xx-data-collection.co
xmem_erase                                        contiki-srf06-cc26xx.a(xmem.o)
                                                  contiki-srf06-cc26xx.a(cfs-coffee.o)
xmem_init                                         contiki-srf06-cc26xx.a(xmem.o)
xmem_pread                                        contiki-srf06-cc26xx.a(xmem.o)
                                                  contiki-srf06-cc26xx.a(cfs-coffee.o)
xmem_pwrite                                       contiki-srf06-cc26xx.a(xmem.o)
                                                  contiki-srf06-cc26xx.a(cfs-coffee.o)
